 Octopus

 Timestamp is 5b06bf83 (Thu May 24 09:34:59 2018)

 Preferred load address is 00400000

 Start         Length     Name                   Class
 0001:00000000 0009372fH .text                   CODE
 0001:00093730 00002da2H .text$x                 CODE
 0001:000964e0 00001b46H .text$yc                CODE
 0001:00098030 000010ceH .text$yd                CODE
 0002:00000000 00000104H .CRT$XCA                DATA
 0002:00000104 00000104H .CRT$XCAA               DATA
 0002:00000208 0000010eH .CRT$XCC                DATA
 0002:00000318 00000186H .CRT$XCL                DATA
 0002:000004a0 0000011cH .CRT$XCU                DATA
 0002:000005bc 00000104H .CRT$XCZ                DATA
 0002:000006c0 00000104H .CRT$XIA                DATA
 0002:000007c4 00000104H .CRT$XIAA               DATA
 0002:000008c8 00000104H .CRT$XIC                DATA
 0002:000009cc 00000104H .CRT$XIY                DATA
 0002:00000ad0 00000104H .CRT$XIZ                DATA
 0002:00000be0 00013474H .rdata                  DATA
 0002:00014054 00000198H .rdata$debug            DATA
 0002:000141ec 00000deaH .rdata$r                DATA
 0002:00014fe0 000002dbH .rdata$sxdata           DATA
 0002:000152bc 00000104H .rtc$IAA                DATA
 0002:000153c0 00000104H .rtc$IZZ                DATA
 0002:000154c4 00000104H .rtc$TAA                DATA
 0002:000155c8 00000104H .rtc$TZZ                DATA
 0002:000156d0 00001dc0H .xdata$x                DATA
 0002:00017490 00000104H ATL$__a                 DATA
 0002:00017594 00000104H ATL$__z                 DATA
 0002:00017698 00000000H .edata                  DATA
 0003:00000000 00001027H .data                   DATA
 0003:00001040 00003290H .bss                    DATA
 0004:00000000 000000dcH .idata$2                DATA
 0004:000000dc 00000014H .idata$3                DATA
 0004:000000f0 00000d08H .idata$4                DATA
 0004:00000df8 00000d08H .idata$5                DATA
 0004:00001b00 00000c58H .idata$6                DATA
 0005:00000000 000009a0H .rsrc$01                DATA
 0005:000009a0 000a0ab9H .rsrc$02                DATA

  Address         Publics by Value              Rva+Base       Lib:Object

 0000:00000000       __except_list              00000000     <absolute>
 0000:00000062       ___safe_se_handler_count   00000062     <absolute>
 0000:00009876       __ldused                   00009876     <absolute>
 0000:00009876       __fltused                  00009876     <absolute>
 0000:00000000       ___ImageBase               00400000     <linker-defined>
 0001:000014d0       ?_AfxInitManaged@@YAHXZ    004024d0 f i APTMotor.obj
 0001:000014d8       _system                    004024d8 f   msvcrtd:MSVCR90D.dll
 0001:000014e0       ?CreateObject@CMgmotorctrl1@@SGPAVCObject@@XZ 004024e0 f   APTMotor.obj
 0001:00001560       ?_GetBaseClass@CMgmotorctrl1@@KGPAUCRuntimeClass@@XZ 00402560 f   APTMotor.obj
 0001:00001570       ?GetThisClass@CMgmotorctrl1@@SGPAUCRuntimeClass@@XZ 00402570 f   APTMotor.obj
 0001:00001580       ?GetRuntimeClass@CMgmotorctrl1@@UBEPAUCRuntimeClass@@XZ 00402580 f   APTMotor.obj
 0001:000015c0       ??0CMgmotorctrl1@@QAE@XZ   004025c0 f i APTMotor.obj
 0001:000015f0       ?Create@CMgmotorctrl1@@UAEHPBD0KABUtagRECT@@PAVCWnd@@IPAUCCreateContext@@@Z 004025f0 f i APTMotor.obj
 0001:00001640       ?GetClsid@CMgmotorctrl1@@QAEABU_GUID@@XZ 00402640 f i APTMotor.obj
 0001:00001660       ??_ECMgmotorctrl1@@UAEPAXI@Z 00402660 f i APTMotor.obj
 0001:00001660       ??_GCMgmotorctrl1@@UAEPAXI@Z 00402660 f i APTMotor.obj
 0001:000016a0       ??1CMgmotorctrl1@@UAE@XZ   004026a0 f i APTMotor.obj
 0001:000016c0       ??0Thank_you@Define_the_symbol__ATL_MIXED@@QAE@XZ 004026c0 f i APTMotor.obj
 0001:000016e0       ?one@Thank_you@Define_the_symbol__ATL_MIXED@@UAEXXZ 004026e0 f i APTMotor.obj
 0001:000016f0       ?CreateObject@APT_system@@SGPAVCObject@@XZ 004026f0 f   APTSystem.obj
 0001:00001760       ?_GetBaseClass@APT_system@@KGPAUCRuntimeClass@@XZ 00402760 f   APTSystem.obj
 0001:00001770       ?GetThisClass@APT_system@@SGPAUCRuntimeClass@@XZ 00402770 f   APTSystem.obj
 0001:00001780       ?GetRuntimeClass@APT_system@@UBEPAUCRuntimeClass@@XZ 00402780 f   APTSystem.obj
 0001:000017c0       ??0APT_system@@QAE@XZ      004027c0 f i APTSystem.obj
 0001:000017f0       ?Create@APT_system@@UAEHPBD0KABUtagRECT@@PAVCWnd@@IPAUCCreateContext@@@Z 004027f0 f i APTSystem.obj
 0001:00001840       ?GetClsid@APT_system@@QAEABU_GUID@@XZ 00402840 f i APTSystem.obj
 0001:00001860       ??_GAPT_system@@UAEPAXI@Z  00402860 f i APTSystem.obj
 0001:00001860       ??_EAPT_system@@UAEPAXI@Z  00402860 f i APTSystem.obj
 0001:000018a0       ??1APT_system@@UAE@XZ      004028a0 f i APTSystem.obj
 0001:000018c0       ??0CPort@@QAE@XZ           004028c0 f   cport.obj
 0001:000018f0       ??1CPort@@QAE@XZ           004028f0 f   cport.obj
 0001:00001920       ?OpenCPort@CPort@@QAE_NXZ  00402920 f   cport.obj
 0001:00001b20       ?CloseCPort@CPort@@QAE_NXZ 00402b20 f   cport.obj
 0001:00001b70       ?WriteCPort@CPort@@QAE_NXZ 00402b70 f   cport.obj
 0001:00001c50       ?WriteCPortOneByte@CPort@@QAE_NXZ 00402c50 f   cport.obj
 0001:00001d20       ?CheckWrite@CPort@@QAE_NXZ 00402d20 f   cport.obj
 0001:00001d90       ?ReadCPort@CPort@@QAE_NXZ  00402d90 f   cport.obj
 0001:00001ea0       ?ReadCPortOneByte@CPort@@QAE_NXZ 00402ea0 f   cport.obj
 0001:00001f70       ?CheckRead@CPort@@QAE_NXZ  00402f70 f   cport.obj
 0001:000021a0       ?_GetBaseClass@DisplayDialog@@KGPAUCRuntimeClass@@XZ 004031a0 f   DisplayDialog.obj
 0001:000021b0       ?GetThisClass@DisplayDialog@@SGPAUCRuntimeClass@@XZ 004031b0 f   DisplayDialog.obj
 0001:000021c0       ?GetRuntimeClass@DisplayDialog@@UBEPAUCRuntimeClass@@XZ 004031c0 f   DisplayDialog.obj
 0001:000021d0       ??0DisplayDialog@@QAE@PAVCWnd@@@Z 004031d0 f   DisplayDialog.obj
 0001:00002200       ??1DisplayDialog@@UAE@XZ   00403200 f   DisplayDialog.obj
 0001:00002220       ?DoDataExchange@DisplayDialog@@MAEXPAVCDataExchange@@@Z 00403220 f   DisplayDialog.obj
 0001:00002240       ?GetMessageMap@DisplayDialog@@MBEPBUAFX_MSGMAP@@XZ 00403240 f   DisplayDialog.obj
 0001:00002250       ?GetThisMessageMap@DisplayDialog@@KGPBUAFX_MSGMAP@@XZ 00403250 f   DisplayDialog.obj
 0001:00002290       ??_EDisplayDialog@@UAEPAXI@Z 00403290 f i DisplayDialog.obj
 0001:00002290       ??_GDisplayDialog@@UAEPAXI@Z 00403290 f i DisplayDialog.obj
 0001:000022d0       ?CreateObject@CMainFrame@@SGPAVCObject@@XZ 004032d0 f   MainFrm.obj
 0001:00002350       ?_GetBaseClass@CMainFrame@@KGPAUCRuntimeClass@@XZ 00403350 f   MainFrm.obj
 0001:00002360       ?GetThisClass@CMainFrame@@SGPAUCRuntimeClass@@XZ 00403360 f   MainFrm.obj
 0001:00002370       ?GetRuntimeClass@CMainFrame@@UBEPAUCRuntimeClass@@XZ 00403370 f   MainFrm.obj
 0001:00002380       ??0CMainFrame@@IAE@XZ      00403380 f   MainFrm.obj
 0001:000023a0       ??1CMainFrame@@UAE@XZ      004033a0 f   MainFrm.obj
 0001:000023c0       ?PreCreateWindow@CMainFrame@@UAEHAAUtagCREATESTRUCTA@@@Z 004033c0 f   MainFrm.obj
 0001:00002460       ??_GCMainFrame@@UAEPAXI@Z  00403460 f i MainFrm.obj
 0001:00002460       ??_ECMainFrame@@UAEPAXI@Z  00403460 f i MainFrm.obj
 0001:000024a0       ??0COctopusApp@@QAE@XZ     004034a0 f   Octopus.obj
 0001:000024d0       ?InitInstance@COctopusApp@@UAEHXZ 004034d0 f   Octopus.obj
 0001:000025f0       ?ExitInstance@COctopusApp@@UAEHXZ 004035f0 f   Octopus.obj
 0001:00002660       ??_GCOctopusApp@@UAEPAXI@Z 00403660 f i Octopus.obj
 0001:00002660       ??_ECOctopusApp@@UAEPAXI@Z 00403660 f i Octopus.obj
 0001:000026a0       ??1COctopusApp@@UAE@XZ     004036a0 f i Octopus.obj
 0001:000026c0       ??0Octopus_LED@@QAE@PAVCWnd@@@Z 004036c0 f   Octopus_LED.obj
 0001:00002830       ?DoDataExchange@Octopus_LED@@MAEXPAVCDataExchange@@@Z 00403830 f   Octopus_LED.obj
 0001:000029d0       ?GetMessageMap@Octopus_LED@@MBEPBUAFX_MSGMAP@@XZ 004039d0 f   Octopus_LED.obj
 0001:000029e0       ?GetThisMessageMap@Octopus_LED@@KGPBUAFX_MSGMAP@@XZ 004039e0 f   Octopus_LED.obj
 0001:000029f0       ?OnInitDialog@Octopus_LED@@MAEHXZ 004039f0 f   Octopus_LED.obj
 0001:00002ad0       ??1Octopus_LED@@UAE@XZ     00403ad0 f   Octopus_LED.obj
 0001:00002ba0       ?OnCommand@Octopus_LED@@MAEHIJ@Z 00403ba0 f   Octopus_LED.obj
 0001:00002bf0       ?LED_On@Octopus_LED@@QAEXM@Z 00403bf0 f   Octopus_LED.obj
 0001:00002c30       ?LED_Off@Octopus_LED@@QAEXXZ 00403c30 f   Octopus_LED.obj
 0001:00002c50       ?Laser_On@Octopus_LED@@QAEXM@Z 00403c50 f   Octopus_LED.obj
 0001:00002c90       ?Laser_Off@Octopus_LED@@QAEXXZ 00403c90 f   Octopus_LED.obj
 0001:00002cb0       ?SetLEDIntensity@Octopus_LED@@IAEXM@Z 00403cb0 f   Octopus_LED.obj
 0001:00002d50       ?SetLaserIntensity@Octopus_LED@@IAEXM@Z 00403d50 f   Octopus_LED.obj
 0001:00002df0       ?SetFlow@Octopus_LED@@QAEXH@Z 00403df0 f   Octopus_LED.obj
 0001:00002e70       ?OnEnChangeLED@Octopus_LED@@QAEXXZ 00403e70 f   Octopus_LED.obj
 0001:00002ed0       ?OnEnChangeLaser@Octopus_LED@@QAEXXZ 00403ed0 f   Octopus_LED.obj
 0001:00002f30       ?OnNMCustomdrawLaserIntensitySlider@Octopus_LED@@QAEXPAUtagNMHDR@@PAJ@Z 00403f30 f   Octopus_LED.obj
 0001:00002fb0       ?OnNMCustomdrawLEDIntensitySlider@Octopus_LED@@QAEXPAUtagNMHDR@@PAJ@Z 00403fb0 f   Octopus_LED.obj
 0001:00003030       ?OnBnClickedDout1@Octopus_LED@@QAEXXZ 00404030 f   Octopus_LED.obj
 0001:00003090       ?OnBnClickedDout2@Octopus_LED@@QAEXXZ 00404090 f   Octopus_LED.obj
 0001:000030f0       ?OnBnClickedDout3@Octopus_LED@@QAEXXZ 004040f0 f   Octopus_LED.obj
 0001:00003150       ?OnBnClickedDout4@Octopus_LED@@QAEXXZ 00404150 f   Octopus_LED.obj
 0001:000031b0       ?OnBnClickedDout5@Octopus_LED@@QAEXXZ 004041b0 f   Octopus_LED.obj
 0001:00003210       ?OnBnClickedDout6@Octopus_LED@@QAEXXZ 00404210 f   Octopus_LED.obj
 0001:00003270       ?OnBnClickedDout7@Octopus_LED@@QAEXXZ 00404270 f   Octopus_LED.obj
 0001:000032d0       ?OnBnClickedDout8@Octopus_LED@@QAEXXZ 004042d0 f   Octopus_LED.obj
 0001:00003660       ??_EOctopus_LED@@UAEPAXI@Z 00404660 f i Octopus_LED.obj
 0001:00003660       ??_GOctopus_LED@@UAEPAXI@Z 00404660 f i Octopus_LED.obj
 0001:000036a0       ??0CTraceFileAndLineInfo@ATL@@QAE@PBDH@Z 004046a0 f i Octopus_LED.obj
 0001:000036d0       ??RCTraceFileAndLineInfo@ATL@@QBAXPBDZZ 004046d0 f i Octopus_LED.obj
 0001:00003730       ?TraceV@CTrace@ATL@@QBAXPBDHKI0PAD@Z 00404730 f i Octopus_LED.obj
 0001:00003770       ??BCTraceCategory@ATL@@QBEKXZ 00404770 f i Octopus_LED.obj
 0001:00003790       ??0COctopusPictureDisplay@@QAE@PAVCWnd@@GG@Z 00404790 f   OctopusCameraDisplay.obj
 0001:00003b40       ?OnInitDialog@COctopusPictureDisplay@@MAEHXZ 00404b40 f   OctopusCameraDisplay.obj
 0001:00003b60       ?GetMessageMap@COctopusPictureDisplay@@MBEPBUAFX_MSGMAP@@XZ 00404b60 f   OctopusCameraDisplay.obj
 0001:00003b70       ?GetThisMessageMap@COctopusPictureDisplay@@KGPBUAFX_MSGMAP@@XZ 00404b70 f   OctopusCameraDisplay.obj
 0001:00003b80       ?DoDataExchange@COctopusPictureDisplay@@MAEXPAVCDataExchange@@@Z 00404b80 f   OctopusCameraDisplay.obj
 0001:00003bc0       ??1COctopusPictureDisplay@@UAE@XZ 00404bc0 f   OctopusCameraDisplay.obj
 0001:00003de0       ?Create_Bitmap@COctopusPictureDisplay@@QAEXXZ 00404de0 f   OctopusCameraDisplay.obj
 0001:00004030       ?Draw_Bitmap@COctopusPictureDisplay@@IAEXXZ 00405030 f   OctopusCameraDisplay.obj
 0001:00004410       ?Update_Bitmap@COctopusPictureDisplay@@QAEXPAGG@Z 00405410 f   OctopusCameraDisplay.obj
 0001:00004e50       ?BasicAnalysis@COctopusPictureDisplay@@IAEXPAG@Z 00405e50 f   OctopusCameraDisplay.obj
 0001:00004fb0       ?ROIAnalysis@COctopusPictureDisplay@@IAEXPAG@Z 00405fb0 f   OctopusCameraDisplay.obj
 0001:000052e0       ?BeadAnalysis@COctopusPictureDisplay@@QAEXPAG@Z 004062e0 f   OctopusCameraDisplay.obj
 0001:00005a30       ?gNoise@COctopusPictureDisplay@@QAENNN@Z 00406a30 f   OctopusCameraDisplay.obj
 0001:00005ac0       ?Open_A_File@COctopusPictureDisplay@@IAE_NXZ 00406ac0 f   OctopusCameraDisplay.obj
 0001:00005d20       ?Close_The_File@COctopusPictureDisplay@@QAEXXZ 00406d20 f   OctopusCameraDisplay.obj
 0001:00005da0       ?WritePic@COctopusPictureDisplay@@IAEXXZ 00406da0 f   OctopusCameraDisplay.obj
 0001:00005fd0       ?UpdateTitle@COctopusPictureDisplay@@IAEXXZ 00406fd0 f   OctopusCameraDisplay.obj
 0001:00006130       ?ValidateMarkersAndSetROI@COctopusPictureDisplay@@IAEXXZ 00407130 f   OctopusCameraDisplay.obj
 0001:00006410       ?MouseMove@COctopusPictureDisplay@@IAEXVCPoint@@@Z 00407410 f   OctopusCameraDisplay.obj
 0001:00006570       ?LeftButtonDown@COctopusPictureDisplay@@IAEXVCPoint@@@Z 00407570 f   OctopusCameraDisplay.obj
 0001:000065e0       ?LeftButtonUp@COctopusPictureDisplay@@IAEXVCPoint@@@Z 004075e0 f   OctopusCameraDisplay.obj
 0001:00006660       ?OnMouseMove@COctopusPictureDisplay@@IAEXIVCPoint@@@Z 00407660 f   OctopusCameraDisplay.obj
 0001:000066a0       ?OnLButtonUp@COctopusPictureDisplay@@IAEXIVCPoint@@@Z 004076a0 f   OctopusCameraDisplay.obj
 0001:000066d0       ?OnLButtonDown@COctopusPictureDisplay@@IAEXIVCPoint@@@Z 004076d0 f   OctopusCameraDisplay.obj
 0001:00006700       ?OnRButtonDown@COctopusPictureDisplay@@IAEXIVCPoint@@@Z 00407700 f   OctopusCameraDisplay.obj
 0001:00006730       ?OnCommand@COctopusPictureDisplay@@MAEHIJ@Z 00407730 f   OctopusCameraDisplay.obj
 0001:00006780       ?expfunc@@YAXPAN0HHPAX@Z   00407780 f   OctopusCameraDisplay.obj
 0001:000067e0       ?Gaussian_2D@@YAXPAN0HHPAX@Z 004077e0 f   OctopusCameraDisplay.obj
 0001:00007580       ??_ECOctopusPictureDisplay@@UAEPAXI@Z 00408580 f i OctopusCameraDisplay.obj
 0001:00007580       ??_GCOctopusPictureDisplay@@UAEPAXI@Z 00408580 f i OctopusCameraDisplay.obj
 0001:000075c0       ??HATL@@YA?AV?$CStringT@DV?$StrTraitMFC_DLL@DV?$ChTraitsCRT@D@ATL@@@@@0@ABV10@0@Z 004085c0 f i OctopusCameraDisplay.obj
 0001:000076a0       ??0COctopusCamera@@QAE@PAVCWnd@@@Z 004086a0 f   OctopusCameraDlg.obj
 0001:00007b20       ?DoDataExchange@COctopusCamera@@MAEXPAVCDataExchange@@@Z 00408b20 f   OctopusCameraDlg.obj
 0001:00007de0       ?GetMessageMap@COctopusCamera@@MBEPBUAFX_MSGMAP@@XZ 00408de0 f   OctopusCameraDlg.obj
 0001:00007df0       ?GetThisMessageMap@COctopusCamera@@KGPBUAFX_MSGMAP@@XZ 00408df0 f   OctopusCameraDlg.obj
 0001:00007e00       ?OnInitDialog@COctopusCamera@@MAEHXZ 00408e00 f   OctopusCameraDlg.obj
 0001:00007f50       ??1COctopusCamera@@UAE@XZ  00408f50 f   OctopusCameraDlg.obj
 0001:000081c0       ?SetExposureTime_Single_ms@COctopusCamera@@QAEXH@Z 004091c0 f   OctopusCameraDlg.obj
 0001:000081f0       ?SetExposureTime_Movie_ms@COctopusCamera@@QAEXH@Z 004091f0 f   OctopusCameraDlg.obj
 0001:00008220       ?SetCameraGain@COctopusCamera@@QAEXH@Z 00409220 f   OctopusCameraDlg.obj
 0001:00008280       ?SetNKinetics@COctopusCamera@@QAEXH@Z 00409280 f   OctopusCameraDlg.obj
 0001:000082c0       ?SetMovieGain@COctopusCamera@@QAEXH@Z 004092c0 f   OctopusCameraDlg.obj
 0001:00008320       ?Opencam@COctopusCamera@@IAEXXZ 00409320 f   OctopusCameraDlg.obj
 0001:00008500       ?StartPicture@COctopusCamera@@QAEXXZ 00409500 f   OctopusCameraDlg.obj
 0001:000086b0       ?TakePicture@COctopusCamera@@QAEXXZ 004096b0 f   OctopusCameraDlg.obj
 0001:00008820       ?TakeKineticPicture@COctopusCamera@@QAEXXZ 00409820 f   OctopusCameraDlg.obj
 0001:00008a00       ?StartMovie@COctopusCamera@@QAEXXZ 00409a00 f   OctopusCameraDlg.obj
 0001:00008bb0       ?StopCameraThread@COctopusCamera@@QAEXXZ 00409bb0 f   OctopusCameraDlg.obj
 0001:00008c00       ?SetROI_To_Default@COctopusCamera@@QAEXXZ 00409c00 f   OctopusCameraDlg.obj
 0001:00008c70       ?SetROI@COctopusCamera@@IAEXXZ 00409c70 f   OctopusCameraDlg.obj
 0001:00008d70       ?BinChange@COctopusCamera@@IAEXXZ 00409d70 f   OctopusCameraDlg.obj
 0001:00008dd0       ?OpenWindow@COctopusCamera@@IAEXXZ 00409dd0 f   OctopusCameraDlg.obj
 0001:00008f80       ?OnKillfocusGeneral@COctopusCamera@@IAEXXZ 00409f80 f   OctopusCameraDlg.obj
 0001:00008fa0       ?OnKillfocusTempTarget@COctopusCamera@@IAEXXZ 00409fa0 f   OctopusCameraDlg.obj
 0001:00008fd0       ?OnKillfocusManualGain@COctopusCamera@@IAEXXZ 00409fd0 f   OctopusCameraDlg.obj
 0001:00009000       ?OnKillfocusPicturesPerFile@COctopusCamera@@IAEXXZ 0040a000 f   OctopusCameraDlg.obj
 0001:00009030       ?OnBinning1x1@COctopusCamera@@IAEXXZ 0040a030 f   OctopusCameraDlg.obj
 0001:00009060       ?OnBinning2x2@COctopusCamera@@IAEXXZ 0040a060 f   OctopusCameraDlg.obj
 0001:00009090       ?OnBinning4x4@COctopusCamera@@IAEXXZ 0040a090 f   OctopusCameraDlg.obj
 0001:000090c0       ?OnBinning8x8@COctopusCamera@@IAEXXZ 0040a0c0 f   OctopusCameraDlg.obj
 0001:000090f0       ?OnVSSPEED_0@COctopusCamera@@IAEXXZ 0040a0f0 f   OctopusCameraDlg.obj
 0001:00009110       ?OnVSSPEED_1@COctopusCamera@@IAEXXZ 0040a110 f   OctopusCameraDlg.obj
 0001:00009130       ?OnVSSPEED_2@COctopusCamera@@IAEXXZ 0040a130 f   OctopusCameraDlg.obj
 0001:00009150       ?OnVSSPEED_3@COctopusCamera@@IAEXXZ 0040a150 f   OctopusCameraDlg.obj
 0001:00009170       ?OnVSSPEED_4@COctopusCamera@@IAEXXZ 0040a170 f   OctopusCameraDlg.obj
 0001:00009190       ?OnHSSPEED_0@COctopusCamera@@IAEXXZ 0040a190 f   OctopusCameraDlg.obj
 0001:000091b0       ?OnHSSPEED_1@COctopusCamera@@IAEXXZ 0040a1b0 f   OctopusCameraDlg.obj
 0001:000091d0       ?OnHSSPEED_2@COctopusCamera@@IAEXXZ 0040a1d0 f   OctopusCameraDlg.obj
 0001:000091f0       ?OnHSSPEED_3@COctopusCamera@@IAEXXZ 0040a1f0 f   OctopusCameraDlg.obj
 0001:00009210       ?OnHSSPEED_4@COctopusCamera@@IAEXXZ 0040a210 f   OctopusCameraDlg.obj
 0001:00009230       ?OnHSSPEED_5@COctopusCamera@@IAEXXZ 0040a230 f   OctopusCameraDlg.obj
 0001:00009250       ?OnLMM_0@COctopusCamera@@IAEXXZ 0040a250 f   OctopusCameraDlg.obj
 0001:00009280       ?OnLMM_1@COctopusCamera@@IAEXXZ 0040a280 f   OctopusCameraDlg.obj
 0001:000092b0       ?OnLMM_2@COctopusCamera@@IAEXXZ 0040a2b0 f   OctopusCameraDlg.obj
 0001:000092e0       ?OnLMM_3@COctopusCamera@@IAEXXZ 0040a2e0 f   OctopusCameraDlg.obj
 0001:00009310       ?OnPIC_0@COctopusCamera@@IAEXXZ 0040a310 f   OctopusCameraDlg.obj
 0001:00009340       ?OnPIC_1@COctopusCamera@@IAEXXZ 0040a340 f   OctopusCameraDlg.obj
 0001:00009370       ?OnPIC_2@COctopusCamera@@IAEXXZ 0040a370 f   OctopusCameraDlg.obj
 0001:000093a0       ?OnGL_0@COctopusCamera@@IAEXXZ 0040a3a0 f   OctopusCameraDlg.obj
 0001:000093d0       ?OnGL_1@COctopusCamera@@IAEXXZ 0040a3d0 f   OctopusCameraDlg.obj
 0001:00009420       ?OnGL_2@COctopusCamera@@IAEXXZ 0040a420 f   OctopusCameraDlg.obj
 0001:00009470       ?OnVSSPEED_Report@COctopusCamera@@IAEXXZ 0040a470 f   OctopusCameraDlg.obj
 0001:00009490       ?OnHSSPEED_Report@COctopusCamera@@IAEXXZ 0040a490 f   OctopusCameraDlg.obj
 0001:000095f0       ?OnDisplayGainManual@COctopusCamera@@IAEXXZ 0040a5f0 f   OctopusCameraDlg.obj
 0001:00009620       ?OnDisplayGainAutomatic@COctopusCamera@@IAEXXZ 0040a620 f   OctopusCameraDlg.obj
 0001:00009650       ?StepGrating@COctopusCamera@@IAEXXZ 0040a650 f   OctopusCameraDlg.obj
 0001:000097a0       ?OnFileChange@COctopusCamera@@IAEXXZ 0040a7a0 f   OctopusCameraDlg.obj
 0001:000097d0       ?OnFocusChange@COctopusCamera@@IAEXXZ 0040a7d0 f   OctopusCameraDlg.obj
 0001:000097f0       ?StartSaving@COctopusCamera@@QAEXXZ 0040a7f0 f   OctopusCameraDlg.obj
 0001:00009880       ?StopSaving@COctopusCamera@@QAEXXZ 0040a880 f   OctopusCameraDlg.obj
 0001:00009900       ?FileClose@COctopusCamera@@QAEXXZ 0040a900 f   OctopusCameraDlg.obj
 0001:00009950       ?OnSetPath@COctopusCamera@@IAEXXZ 0040a950 f   OctopusCameraDlg.obj
 0001:00009b20       ?OnTimer@COctopusCamera@@IAEXI@Z 0040ab20 f   OctopusCameraDlg.obj
 0001:0000a0e0       ?StartWaitThread@COctopusCamera@@IAEXXZ 0040b0e0 f   OctopusCameraDlg.obj
 0001:0000a140       ?KillWaitThread@COctopusCamera@@IAEXXZ 0040b140 f   OctopusCameraDlg.obj
 0001:0000a1e0       ?FocusThread@@YGKPAX@Z     0040b1e0 f   OctopusCameraDlg.obj
 0001:0000a2d0       ?OnBnClickedCasFt@COctopusCamera@@QAEXXZ 0040b2d0 f   OctopusCameraDlg.obj
 0001:0000a310       ?OnBnClickedCasTTL@COctopusCamera@@QAEXXZ 0040b310 f   OctopusCameraDlg.obj
 0001:0000a350       ?OnBnClickedCasAL@COctopusCamera@@QAEXXZ 0040b350 f   OctopusCameraDlg.obj
 0001:0000a390       ?OnCommand@COctopusCamera@@MAEHIJ@Z 0040b390 f   OctopusCameraDlg.obj
 0001:0000a3e0       ?EnableDlg@COctopusCamera@@IAEXXZ 0040b3e0 f   OctopusCameraDlg.obj
 0001:0000a590       ?DisableDlgMovie@COctopusCamera@@IAEXXZ 0040b590 f   OctopusCameraDlg.obj
 0001:0000a5f0       ?DisableDlg@COctopusCamera@@IAEXXZ 0040b5f0 f   OctopusCameraDlg.obj
 0001:0000a760       ?OnBnClickedGeneralFocus@COctopusCamera@@QAEXXZ 0040b760 f   OctopusCameraDlg.obj
 0001:0000a7c0       ?OnEnChangeFocusEdit@COctopusCamera@@QAEXXZ 0040b7c0 f   OctopusCameraDlg.obj
 0001:0000a7e0       ?OnEnChangeCasPicturesPerFile@COctopusCamera@@QAEXXZ 0040b7e0 f   OctopusCameraDlg.obj
 0001:0000b440       ??_ECOctopusCamera@@UAEPAXI@Z 0040c440 f i OctopusCameraDlg.obj
 0001:0000b440       ??_GCOctopusCamera@@UAEPAXI@Z 0040c440 f i OctopusCameraDlg.obj
 0001:0000b480       ?GetMiddle@COctopusGrating@@QAENXZ 0040c480 f i OctopusCameraDlg.obj
 0001:0000b4a0       ??HATL@@YA?AV?$CStringT@DV?$StrTraitMFC_DLL@DV?$ChTraitsCRT@D@ATL@@@@@0@ABV10@PBD@Z 0040c4a0 f i OctopusCameraDlg.obj
 0001:0000b580       ??0COctopusGoodClock@@QAE@XZ 0040c580 f   OctopusClock.obj
 0001:0000b5e0       ??1COctopusGoodClock@@UAE@XZ 0040c5e0 f   OctopusClock.obj
 0001:0000b600       ?End@COctopusGoodClock@@QBENXZ 0040c600 f   OctopusClock.obj
 0001:0000b690       ??_ECOctopusGoodClock@@UAEPAXI@Z 0040c690 f i OctopusClock.obj
 0001:0000b690       ??_GCOctopusGoodClock@@UAEPAXI@Z 0040c690 f i OctopusClock.obj
 0001:0000b6d0       ?CreateObject@COctopusDoc@@SGPAVCObject@@XZ 0040c6d0 f   OctopusDoc.obj
 0001:0000b740       ?_GetBaseClass@COctopusDoc@@KGPAUCRuntimeClass@@XZ 0040c740 f   OctopusDoc.obj
 0001:0000b750       ?GetThisClass@COctopusDoc@@SGPAUCRuntimeClass@@XZ 0040c750 f   OctopusDoc.obj
 0001:0000b760       ?GetRuntimeClass@COctopusDoc@@UBEPAUCRuntimeClass@@XZ 0040c760 f   OctopusDoc.obj
 0001:0000b770       ??0COctopusDoc@@IAE@XZ     0040c770 f   OctopusDoc.obj
 0001:0000b790       ??1COctopusDoc@@UAE@XZ     0040c790 f   OctopusDoc.obj
 0001:0000b7b0       ?OnNewDocument@COctopusDoc@@UAEHXZ 0040c7b0 f   OctopusDoc.obj
 0001:0000b800       ??_ECOctopusDoc@@UAEPAXI@Z 0040c800 f i OctopusDoc.obj
 0001:0000b800       ??_GCOctopusDoc@@UAEPAXI@Z 0040c800 f i OctopusDoc.obj
 0001:0000b840       ??0COctopusFocus@@QAE@PAVCWnd@@@Z 0040c840 f   OctopusFocus.obj
 0001:0000ba00       ?OnInitDialog@COctopusFocus@@UAEHXZ 0040ca00 f   OctopusFocus.obj
 0001:0000ba20       ??1COctopusFocus@@UAE@XZ   0040ca20 f   OctopusFocus.obj
 0001:0000bae0       ?Close@COctopusFocus@@QAEXXZ 0040cae0 f   OctopusFocus.obj
 0001:0000bb00       ?OnFocus@COctopusFocus@@QAEXXZ 0040cb00 f   OctopusFocus.obj
 0001:0000bc00       ?AutoFocus@COctopusFocus@@QAEXN@Z 0040cc00 f   OctopusFocus.obj
 0001:0000be20       ?ROIFocus@COctopusFocus@@QAEXN@Z 0040ce20 f   OctopusFocus.obj
 0001:0000c060       ?EndFocus@COctopusFocus@@QAEXXZ 0040d060 f   OctopusFocus.obj
 0001:0000c150       ?OnTimer@COctopusFocus@@QAEXI@Z 0040d150 f   OctopusFocus.obj
 0001:0000c770       ?DoDataExchange@COctopusFocus@@MAEXPAVCDataExchange@@@Z 0040d770 f   OctopusFocus.obj
 0001:0000c7d0       ?GetMessageMap@COctopusFocus@@MBEPBUAFX_MSGMAP@@XZ 0040d7d0 f   OctopusFocus.obj
 0001:0000c7e0       ?GetThisMessageMap@COctopusFocus@@KGPBUAFX_MSGMAP@@XZ 0040d7e0 f   OctopusFocus.obj
 0001:0000c7f0       ?OnKillfocusGeneral@COctopusFocus@@QAEXXZ 0040d7f0 f   OctopusFocus.obj
 0001:0000c810       ?OnCommand@COctopusFocus@@MAEHIJ@Z 0040d810 f   OctopusFocus.obj
 0001:0000cc60       ??_ECOctopusFocus@@UAEPAXI@Z 0040dc60 f i OctopusFocus.obj
 0001:0000cc60       ??_GCOctopusFocus@@UAEPAXI@Z 0040dc60 f i OctopusFocus.obj
 0001:0000cca0       ?GetExposureTime_Single_ms@COctopusCamera@@QAEKXZ 0040dca0 f i OctopusFocus.obj
 0001:0000ccc0       ??0COctopusGrating@@QAE@PAVCWnd@@@Z 0040dcc0 f   OctopusGrating.obj
 0001:0000cde0       ?OnInitDialog@COctopusGrating@@UAEHXZ 0040dde0 f   OctopusGrating.obj
 0001:0000ce20       ??1COctopusGrating@@UAE@XZ 0040de20 f   OctopusGrating.obj
 0001:0000cea0       ?Initialize@COctopusGrating@@QAEHXZ 0040dea0 f   OctopusGrating.obj
 0001:0000d050       ?Close@COctopusGrating@@QAEXXZ 0040e050 f   OctopusGrating.obj
 0001:0000d0f0       ?MoveRel@COctopusGrating@@QAEXN@Z 0040e0f0 f   OctopusGrating.obj
 0001:0000d120       ?MoveTo@COctopusGrating@@QAEXN@Z 0040e120 f   OctopusGrating.obj
 0001:0000d270       ?MoveFwd@COctopusGrating@@QAEXXZ 0040e270 f   OctopusGrating.obj
 0001:0000d2a0       ?MoveBack@COctopusGrating@@QAEXXZ 0040e2a0 f   OctopusGrating.obj
 0001:0000d2d0       ?OnStepSize1@COctopusGrating@@QAEXXZ 0040e2d0 f   OctopusGrating.obj
 0001:0000d310       ?OnStepSize2@COctopusGrating@@QAEXXZ 0040e310 f   OctopusGrating.obj
 0001:0000d350       ?OnStepSize3@COctopusGrating@@QAEXXZ 0040e350 f   OctopusGrating.obj
 0001:0000d390       ?OnStepSize4@COctopusGrating@@QAEXXZ 0040e390 f   OctopusGrating.obj
 0001:0000d3c0       ?OnStepSize5@COctopusGrating@@QAEXXZ 0040e3c0 f   OctopusGrating.obj
 0001:0000d400       ?UpdatePosition@COctopusGrating@@IAEXXZ 0040e400 f   OctopusGrating.obj
 0001:0000d470       ?ShowPosition@COctopusGrating@@IAEXXZ 0040e470 f   OctopusGrating.obj
 0001:0000d520       ?Center@COctopusGrating@@QAEXXZ 0040e520 f   OctopusGrating.obj
 0001:0000d550       ?OnSave@COctopusGrating@@QAEXXZ 0040e550 f   OctopusGrating.obj
 0001:0000d5c0       ?OnSaveGoTo@COctopusGrating@@QAEXXZ 0040e5c0 f   OctopusGrating.obj
 0001:0000d5f0       ?OnTimer@COctopusGrating@@QAEXI@Z 0040e5f0 f   OctopusGrating.obj
 0001:0000d6a0       ?DoDataExchange@COctopusGrating@@MAEXPAVCDataExchange@@@Z 0040e6a0 f   OctopusGrating.obj
 0001:0000d6f0       ?GetMessageMap@COctopusGrating@@MBEPBUAFX_MSGMAP@@XZ 0040e6f0 f   OctopusGrating.obj
 0001:0000d700       ?GetThisMessageMap@COctopusGrating@@KGPBUAFX_MSGMAP@@XZ 0040e700 f   OctopusGrating.obj
 0001:0000d710       ?OnKillfocusGeneral@COctopusGrating@@QAEXXZ 0040e710 f   OctopusGrating.obj
 0001:0000d730       ?OnCommand@COctopusGrating@@MAEHIJ@Z 0040e730 f   OctopusGrating.obj
 0001:0000da20       ??_GCOctopusGrating@@UAEPAXI@Z 0040ea20 f i OctopusGrating.obj
 0001:0000da20       ??_ECOctopusGrating@@UAEPAXI@Z 0040ea20 f i OctopusGrating.obj
 0001:0000da60       ??0OctopusLaser@@QAE@PAVCWnd@@@Z 0040ea60 f   OctopusLaser.obj
 0001:0000dbb0       ?DoDataExchange@OctopusLaser@@MAEXPAVCDataExchange@@@Z 0040ebb0 f   OctopusLaser.obj
 0001:0000dc40       ?GetMessageMap@OctopusLaser@@MBEPBUAFX_MSGMAP@@XZ 0040ec40 f   OctopusLaser.obj
 0001:0000dc50       ?GetThisMessageMap@OctopusLaser@@KGPBUAFX_MSGMAP@@XZ 0040ec50 f   OctopusLaser.obj
 0001:0000dc60       ?OnInitDialog@OctopusLaser@@MAEHXZ 0040ec60 f   OctopusLaser.obj
 0001:0000dd70       ??1OctopusLaser@@UAE@XZ    0040ed70 f   OctopusLaser.obj
 0001:0000de20       ?OnCommand@OctopusLaser@@MAEHIJ@Z 0040ee20 f   OctopusLaser.obj
 0001:0000de70       ?LED_On@OctopusLaser@@QAEXM@Z 0040ee70 f   OctopusLaser.obj
 0001:0000deb0       ?LED_Off@OctopusLaser@@QAEXXZ 0040eeb0 f   OctopusLaser.obj
 0001:0000ded0       ?SetIntensity@OctopusLaser@@IAEXM@Z 0040eed0 f   OctopusLaser.obj
 0001:0000e000       ?OnNMCustomdrawLasersSlider@OctopusLaser@@QAEXPAUtagNMHDR@@PAJ@Z 0040f000 f   OctopusLaser.obj
 0001:0000e120       ?OnEnKillfocusLaserInput@OctopusLaser@@QAEXXZ 0040f120 f   OctopusLaser.obj
 0001:0000e3c0       ??_EOctopusLaser@@UAEPAXI@Z 0040f3c0 f i OctopusLaser.obj
 0001:0000e3c0       ??_GOctopusLaser@@UAEPAXI@Z 0040f3c0 f i OctopusLaser.obj
 0001:0000e400       ??0COctopusLasers@@QAE@PAVCWnd@@@Z 0040f400 f   OctopusLasers.obj
 0001:0000e5d0       ?DoDataExchange@COctopusLasers@@MAEXPAVCDataExchange@@@Z 0040f5d0 f   OctopusLasers.obj
 0001:0000e6b0       ?GetMessageMap@COctopusLasers@@MBEPBUAFX_MSGMAP@@XZ 0040f6b0 f   OctopusLasers.obj
 0001:0000e6c0       ?GetThisMessageMap@COctopusLasers@@KGPBUAFX_MSGMAP@@XZ 0040f6c0 f   OctopusLasers.obj
 0001:0000e6d0       ??1COctopusLasers@@UAE@XZ  0040f6d0 f   OctopusLasers.obj
 0001:0000e7d0       ?OnClicked405@COctopusLasers@@QAEXXZ 0040f7d0 f   OctopusLasers.obj
 0001:0000e800       ?OnClicked488@COctopusLasers@@QAEXXZ 0040f800 f   OctopusLasers.obj
 0001:0000e830       ?OnClicked561@COctopusLasers@@QAEXXZ 0040f830 f   OctopusLasers.obj
 0001:0000e860       ?OnClicked639@COctopusLasers@@QAEXXZ 0040f860 f   OctopusLasers.obj
 0001:0000e890       ?Laser_639_On@COctopusLasers@@QAEXXZ 0040f890 f   OctopusLasers.obj
 0001:0000e8e0       ?Laser_639_Off@COctopusLasers@@QAEXXZ 0040f8e0 f   OctopusLasers.obj
 0001:0000e930       ?Laser_405_On@COctopusLasers@@QAEXXZ 0040f930 f   OctopusLasers.obj
 0001:0000e980       ?Laser_405_Off@COctopusLasers@@QAEXXZ 0040f980 f   OctopusLasers.obj
 0001:0000e9d0       ?Laser_488_On@COctopusLasers@@QAEXXZ 0040f9d0 f   OctopusLasers.obj
 0001:0000ea20       ?Laser_488_Off@COctopusLasers@@QAEXXZ 0040fa20 f   OctopusLasers.obj
 0001:0000ea70       ?Laser_561_On@COctopusLasers@@QAEXXZ 0040fa70 f   OctopusLasers.obj
 0001:0000eac0       ?Laser_561_Off@COctopusLasers@@QAEXXZ 0040fac0 f   OctopusLasers.obj
 0001:0000eb10       ?Initialize@COctopusLasers@@QAEXXZ 0040fb10 f   OctopusLasers.obj
 0001:0000ecb0       ?OnCommand@COctopusLasers@@MAEHIJ@Z 0040fcb0 f   OctopusLasers.obj
 0001:0000ef30       ??_GCOctopusLasers@@UAEPAXI@Z 0040ff30 f i OctopusLasers.obj
 0001:0000ef30       ??_ECOctopusLasers@@UAEPAXI@Z 0040ff30 f i OctopusLasers.obj
 0001:0000ef70       ?SC_Enable@CMgmotorctrl1@@QAEJJ@Z 0040ff70 f i OctopusLasers.obj
 0001:0000efc0       ?SC_Disable@CMgmotorctrl1@@QAEJJ@Z 0040ffc0 f i OctopusLasers.obj
 0001:0000f010       ?StartCtrl@CMgmotorctrl1@@QAEJXZ 00410010 f i OctopusLasers.obj
 0001:0000f050       ?SC_SetOperatingMode@CMgmotorctrl1@@QAEJJJ@Z 00410050 f i OctopusLasers.obj
 0001:0000f0a0       ?SetHWSerialNum@CMgmotorctrl1@@QAEXJ@Z 004100a0 f i OctopusLasers.obj
 0001:0000f0d0       ??0COctopusLog@@QAE@XZ     004100d0 f   OctopusLog.obj
 0001:0000f110       ??1COctopusLog@@QAE@XZ     00410110 f   OctopusLog.obj
 0001:0000f140       ?Open_File@COctopusLog@@IAE_NXZ 00410140 f   OctopusLog.obj
 0001:0000f180       ?Write@COctopusLog@@QAEXV?$CStringT@DV?$StrTraitMFC_DLL@DV?$ChTraitsCRT@D@ATL@@@@@ATL@@@Z 00410180 f   OctopusLog.obj
 0001:0000f360       ?Format@CTime@ATL@@QBE?AV?$CStringT@DV?$StrTraitMFC_DLL@DV?$ChTraitsCRT@D@ATL@@@@@2@PBD@Z 00410360 f i OctopusLog.obj
 0001:0000f460       ??0COctopusObjectivePiezo@@QAE@PAVCWnd@@@Z 00410460 f   OctopusObjectivePiezo.obj
 0001:0000f640       ?OnInitDialog@COctopusObjectivePiezo@@UAEHXZ 00410640 f   OctopusObjectivePiezo.obj
 0001:0000f660       ??1COctopusObjectivePiezo@@UAE@XZ 00410660 f   OctopusObjectivePiezo.obj
 0001:0000f730       ?Initialize@COctopusObjectivePiezo@@QAEHXZ 00410730 f   OctopusObjectivePiezo.obj
 0001:0000f9a0       ?Close@COctopusObjectivePiezo@@QAEXXZ 004109a0 f   OctopusObjectivePiezo.obj
 0001:0000fa50       ?MoveRelZ@COctopusObjectivePiezo@@QAEXN@Z 00410a50 f   OctopusObjectivePiezo.obj
 0001:0000fbb0       ?MoveUp@COctopusObjectivePiezo@@QAEXXZ 00410bb0 f   OctopusObjectivePiezo.obj
 0001:0000fbe0       ?MoveDown@COctopusObjectivePiezo@@QAEXXZ 00410be0 f   OctopusObjectivePiezo.obj
 0001:0000fc10       ?OnStepSize1@COctopusObjectivePiezo@@QAEXXZ 00410c10 f   OctopusObjectivePiezo.obj
 0001:0000fc50       ?OnStepSize2@COctopusObjectivePiezo@@QAEXXZ 00410c50 f   OctopusObjectivePiezo.obj
 0001:0000fc90       ?OnStepSize3@COctopusObjectivePiezo@@QAEXXZ 00410c90 f   OctopusObjectivePiezo.obj
 0001:0000fcd0       ?OnStepSize4@COctopusObjectivePiezo@@QAEXXZ 00410cd0 f   OctopusObjectivePiezo.obj
 0001:0000fd00       ?OnStepSize5@COctopusObjectivePiezo@@QAEXXZ 00410d00 f   OctopusObjectivePiezo.obj
 0001:0000fd40       ?GetPosition@COctopusObjectivePiezo@@IAENXZ 00410d40 f   OctopusObjectivePiezo.obj
 0001:0000fd60       ?UpdatePosition@COctopusObjectivePiezo@@IAEXXZ 00410d60 f   OctopusObjectivePiezo.obj
 0001:0000fdd0       ?ShowPosition@COctopusObjectivePiezo@@IAEXXZ 00410dd0 f   OctopusObjectivePiezo.obj
 0001:0000fe80       ?Center@COctopusObjectivePiezo@@QAEXXZ 00410e80 f   OctopusObjectivePiezo.obj
 0001:0000ff70       ?OnSave@COctopusObjectivePiezo@@QAEXXZ 00410f70 f   OctopusObjectivePiezo.obj
 0001:0000ffe0       ?OnSaveGoTo@COctopusObjectivePiezo@@QAEXXZ 00410fe0 f   OctopusObjectivePiezo.obj
 0001:000100d0       ?OnTimer@COctopusObjectivePiezo@@QAEXI@Z 004110d0 f   OctopusObjectivePiezo.obj
 0001:00010190       ?DoDataExchange@COctopusObjectivePiezo@@MAEXPAVCDataExchange@@@Z 00411190 f   OctopusObjectivePiezo.obj
 0001:000101e0       ?GetMessageMap@COctopusObjectivePiezo@@MBEPBUAFX_MSGMAP@@XZ 004111e0 f   OctopusObjectivePiezo.obj
 0001:000101f0       ?GetThisMessageMap@COctopusObjectivePiezo@@KGPBUAFX_MSGMAP@@XZ 004111f0 f   OctopusObjectivePiezo.obj
 0001:00010200       ?OnKillfocusGeneral@COctopusObjectivePiezo@@QAEXXZ 00411200 f   OctopusObjectivePiezo.obj
 0001:00010220       ?OnCommand@COctopusObjectivePiezo@@MAEHIJ@Z 00411220 f   OctopusObjectivePiezo.obj
 0001:000105f0       ??_ECOctopusObjectivePiezo@@UAEPAXI@Z 004115f0 f i OctopusObjectivePiezo.obj
 0001:000105f0       ??_GCOctopusObjectivePiezo@@UAEPAXI@Z 004115f0 f i OctopusObjectivePiezo.obj
 0001:00010630       ??0COctopusPolarizer@@QAE@PAVCWnd@@@Z 00411630 f   OctopusPolarizer.obj
 0001:00010860       ?OnInitDialog@COctopusPolarizer@@MAEHXZ 00411860 f   OctopusPolarizer.obj
 0001:00010930       ?OnTimer@COctopusPolarizer@@QAEXI@Z 00411930 f   OctopusPolarizer.obj
 0001:000109a0       ?DoDataExchange@COctopusPolarizer@@MAEXPAVCDataExchange@@@Z 004119a0 f   OctopusPolarizer.obj
 0001:00010b60       ?GetMessageMap@COctopusPolarizer@@MBEPBUAFX_MSGMAP@@XZ 00411b60 f   OctopusPolarizer.obj
 0001:00010b70       ?GetThisMessageMap@COctopusPolarizer@@KGPBUAFX_MSGMAP@@XZ 00411b70 f   OctopusPolarizer.obj
 0001:00010b80       ?OnKillfocusGeneral@COctopusPolarizer@@QAEXXZ 00411b80 f   OctopusPolarizer.obj
 0001:00010ba0       ??1COctopusPolarizer@@UAE@XZ 00411ba0 f   OctopusPolarizer.obj
 0001:00010c90       ?MoveCW@COctopusPolarizer@@QAEXXZ 00411c90 f   OctopusPolarizer.obj
 0001:00010cc0       ?MoveCCW@COctopusPolarizer@@QAEXXZ 00411cc0 f   OctopusPolarizer.obj
 0001:00010cf0       ?MoveRel@COctopusPolarizer@@QAEXM@Z 00411cf0 f   OctopusPolarizer.obj
 0001:00010d20       ?MoveAE_T@COctopusPolarizer@@IAEXM_N@Z 00411d20 f   OctopusPolarizer.obj
 0001:00010d70       ?Initialize@COctopusPolarizer@@QAEXXZ 00411d70 f   OctopusPolarizer.obj
 0001:00010e40       ?OnBnClickedRot@COctopusPolarizer@@QAEXXZ 00411e40 f   OctopusPolarizer.obj
 0001:00010ec0       ?OnBnClickedRot2@COctopusPolarizer@@QAEXXZ 00411ec0 f   OctopusPolarizer.obj
 0001:00010f40       ?OnBnClickedRot3@COctopusPolarizer@@QAEXXZ 00411f40 f   OctopusPolarizer.obj
 0001:00010fc0       ?GetPosition@COctopusPolarizer@@IAEXXZ 00411fc0 f   OctopusPolarizer.obj
 0001:00011000       ?FrameConvert@COctopusPolarizer@@IAENN@Z 00412000 f   OctopusPolarizer.obj
 0001:00011050       ?Close@COctopusPolarizer@@QAEXXZ 00412050 f   OctopusPolarizer.obj
 0001:00011080       ?Zero@COctopusPolarizer@@QAEXXZ 00412080 f   OctopusPolarizer.obj
 0001:000110a0       ?SavePositionGoTo@COctopusPolarizer@@QAEXXZ 004120a0 f   OctopusPolarizer.obj
 0001:000110d0       ?SavePositionSet@COctopusPolarizer@@QAEXXZ 004120d0 f   OctopusPolarizer.obj
 0001:00011100       ?ShowPosition@COctopusPolarizer@@IAEXXZ 00412100 f   OctopusPolarizer.obj
 0001:000111c0       ?ShowStep@COctopusPolarizer@@IAEXXZ 004121c0 f   OctopusPolarizer.obj
 0001:00011280       ?OnCommand@COctopusPolarizer@@MAEHIJ@Z 00412280 f   OctopusPolarizer.obj
 0001:000112d0       ?ScanSetStart@COctopusPolarizer@@IAEXXZ 004122d0 f   OctopusPolarizer.obj
 0001:00011300       ?ScanStartStop@COctopusPolarizer@@QAEXXZ 00412300 f   OctopusPolarizer.obj
 0001:00011400       ?ScanStep@COctopusPolarizer@@IAEXXZ 00412400 f   OctopusPolarizer.obj
 0001:000117b0       ?ScanDone@COctopusPolarizer@@IAEXXZ 004127b0 f   OctopusPolarizer.obj
 0001:00011d40       ??_ECOctopusPolarizer@@UAEPAXI@Z 00412d40 f i OctopusPolarizer.obj
 0001:00011d40       ??_GCOctopusPolarizer@@UAEPAXI@Z 00412d40 f i OctopusPolarizer.obj
 0001:00011d80       ?MoveRelativeEnc@CMgmotorctrl1@@QAEJJMMJH@Z 00412d80 f i OctopusPolarizer.obj
 0001:00011de0       ?MoveAbsoluteEnc@CMgmotorctrl1@@QAEJJMMJH@Z 00412de0 f i OctopusPolarizer.obj
 0001:00011e40       ?MoveHome@CMgmotorctrl1@@QAEJJH@Z 00412e40 f i OctopusPolarizer.obj
 0001:00011e90       ?SetVelParams@CMgmotorctrl1@@QAEJJMMM@Z 00412e90 f i OctopusPolarizer.obj
 0001:00011ef0       ?SetBLashDist@CMgmotorctrl1@@QAEJJM@Z 00412ef0 f i OctopusPolarizer.obj
 0001:00011f40       ?SetRotStageModes@CMgmotorctrl1@@QAEJJJJ@Z 00412f40 f i OctopusPolarizer.obj
 0001:00011f90       ?GetPosition@CMgmotorctrl1@@QAEJJPAM@Z 00412f90 f i OctopusPolarizer.obj
 0001:00011fe0       ?StopCtrl@CMgmotorctrl1@@QAEJXZ 00412fe0 f i OctopusPolarizer.obj
 0001:00012020       ??0COctopusScope@@QAE@PAVCWnd@@@Z 00413020 f   OctopusScope.obj
 0001:00012170       ?OnInitDialog@COctopusScope@@MAEHXZ 00413170 f   OctopusScope.obj
 0001:000121a0       ?OnTimer@COctopusScope@@QAEXI@Z 004131a0 f   OctopusScope.obj
 0001:00012210       ?Init@COctopusScope@@IAE_NXZ 00413210 f   OctopusScope.obj
 0001:000129d0       ?DoDataExchange@COctopusScope@@MAEXPAVCDataExchange@@@Z 004139d0 f   OctopusScope.obj
 0001:00012a90       ?GetMessageMap@COctopusScope@@MBEPBUAFX_MSGMAP@@XZ 00413a90 f   OctopusScope.obj
 0001:00012aa0       ?GetThisMessageMap@COctopusScope@@KGPBUAFX_MSGMAP@@XZ 00413aa0 f   OctopusScope.obj
 0001:00012ab0       ?Close@COctopusScope@@QAEXXZ 00413ab0 f   OctopusScope.obj
 0001:00012b50       ??1COctopusScope@@UAE@XZ   00413b50 f   OctopusScope.obj
 0001:00012c00       ?Z_StepDown@COctopusScope@@QAEXXZ 00413c00 f   OctopusScope.obj
 0001:00012cd0       ?Z_StepUp@COctopusScope@@QAEXXZ 00413cd0 f   OctopusScope.obj
 0001:00012da0       ?ObjESC@COctopusScope@@QAEXXZ 00413da0 f   OctopusScope.obj
 0001:00012ee0       ?ObjRTN@COctopusScope@@QAEXXZ 00413ee0 f   OctopusScope.obj
 0001:00012fe0       ?OnObjectiveStepSize1@COctopusScope@@QAEXXZ 00413fe0 f   OctopusScope.obj
 0001:00013020       ?OnObjectiveStepSize2@COctopusScope@@QAEXXZ 00414020 f   OctopusScope.obj
 0001:00013060       ?OnObjectiveStepSize3@COctopusScope@@QAEXXZ 00414060 f   OctopusScope.obj
 0001:000130a0       ?OnObjectiveStepSize4@COctopusScope@@QAEXXZ 004140a0 f   OctopusScope.obj
 0001:000130e0       ?GetPosition@COctopusScope@@QAEXXZ 004140e0 f   OctopusScope.obj
 0001:000132d0       ?DisplayPosition@COctopusScope@@IAEXXZ 004142d0 f   OctopusScope.obj
 0001:00013370       ?OnObj_1@COctopusScope@@QAEXXZ 00414370 f   OctopusScope.obj
 0001:000133a0       ?OnObj_2@COctopusScope@@QAEXXZ 004143a0 f   OctopusScope.obj
 0001:000133d0       ?OnObj_3@COctopusScope@@QAEXXZ 004143d0 f   OctopusScope.obj
 0001:00013400       ?OnObj_4@COctopusScope@@QAEXXZ 00414400 f   OctopusScope.obj
 0001:00013430       ?OnObj_5@COctopusScope@@QAEXXZ 00414430 f   OctopusScope.obj
 0001:00013460       ?OnObj_6@COctopusScope@@QAEXXZ 00414460 f   OctopusScope.obj
 0001:00013490       ?OnFW_1@COctopusScope@@QAEXXZ 00414490 f   OctopusScope.obj
 0001:000134c0       ?OnFW_2@COctopusScope@@QAEXXZ 004144c0 f   OctopusScope.obj
 0001:000134f0       ?OnFW_3@COctopusScope@@QAEXXZ 004144f0 f   OctopusScope.obj
 0001:00013520       ?OnFW_4@COctopusScope@@QAEXXZ 00414520 f   OctopusScope.obj
 0001:00013550       ?OnFW_5@COctopusScope@@QAEXXZ 00414550 f   OctopusScope.obj
 0001:00013580       ?OnFW_6@COctopusScope@@QAEXXZ 00414580 f   OctopusScope.obj
 0001:000135b0       ?OnBFW_1@COctopusScope@@QAEXXZ 004145b0 f   OctopusScope.obj
 0001:000135e0       ?OnBFW_2@COctopusScope@@QAEXXZ 004145e0 f   OctopusScope.obj
 0001:00013610       ?OnBFW_3@COctopusScope@@QAEXXZ 00414610 f   OctopusScope.obj
 0001:00013640       ?OnBFW_4@COctopusScope@@QAEXXZ 00414640 f   OctopusScope.obj
 0001:00013670       ?OnBFW_5@COctopusScope@@QAEXXZ 00414670 f   OctopusScope.obj
 0001:000136a0       ?OnBFW_6@COctopusScope@@QAEXXZ 004146a0 f   OctopusScope.obj
 0001:000136d0       ?Objective@COctopusScope@@QAEXH@Z 004146d0 f   OctopusScope.obj
 0001:000139e0       ?GetObj@COctopusScope@@IAEHXZ 004149e0 f   OctopusScope.obj
 0001:00013b90       ?GetFW@COctopusScope@@IAEHXZ 00414b90 f   OctopusScope.obj
 0001:00013d40       ?GetBFW@COctopusScope@@IAEHXZ 00414d40 f   OctopusScope.obj
 0001:00013ef0       ?EpiFilterWheel@COctopusScope@@QAEXH@Z 00414ef0 f   OctopusScope.obj
 0001:00013fc0       ?BrightFieldFilterWheel@COctopusScope@@QAEXH@Z 00414fc0 f   OctopusScope.obj
 0001:00014090       ?ChangePath@COctopusScope@@QAEXXZ 00415090 f   OctopusScope.obj
 0001:00014110       ?BrightField@COctopusScope@@QAEXH@Z 00415110 f   OctopusScope.obj
 0001:000141e0       ?OnNMCustomdrawExecute@COctopusScope@@IAEXPAUtagNMHDR@@PAJ@Z 004151e0 f   OctopusScope.obj
 0001:00014240       ?DisplayBFIntensity@COctopusScope@@IAEXH@Z 00415240 f   OctopusScope.obj
 0001:00014300       ?WriteScope@COctopusScope@@IAE_NV?$CStringT@DV?$StrTraitMFC_DLL@DV?$ChTraitsCRT@D@ATL@@@@@ATL@@@Z 00415300 f   OctopusScope.obj
 0001:00014410       ?ReadScope@COctopusScope@@IAE?AV?$CStringT@DV?$StrTraitMFC_DLL@DV?$ChTraitsCRT@D@ATL@@@@@ATL@@G@Z 00415410 f   OctopusScope.obj
 0001:000144d0       ?OnCommand@COctopusScope@@MAEHIJ@Z 004154d0 f   OctopusScope.obj
 0001:00014e50       ??_ECOctopusScope@@UAEPAXI@Z 00415e50 f i OctopusScope.obj
 0001:00014e50       ??_GCOctopusScope@@UAEPAXI@Z 00415e50 f i OctopusScope.obj
 0001:00014e90       ??_GCPort@@QAEPAXI@Z       00415e90 f i OctopusScope.obj
 0001:00014ed0       ??9ATL@@YA_NABV?$CStringT@DV?$StrTraitMFC_DLL@DV?$ChTraitsCRT@D@ATL@@@@@0@PBD@Z 00415ed0 f i OctopusScope.obj
 0001:00014ef0       ??9ATL@@YA_NABV?$CStringT@DV?$StrTraitMFC_DLL@DV?$ChTraitsCRT@D@ATL@@@@@0@D@Z 00415ef0 f i OctopusScope.obj
 0001:00014f40       ??0COctopusScript@@QAE@PAVCWnd@@@Z 00415f40 f   OctopusScript.obj
 0001:000150d0       ?DoDataExchange@COctopusScript@@MAEXPAVCDataExchange@@@Z 004160d0 f   OctopusScript.obj
 0001:00015150       ?GetMessageMap@COctopusScript@@MBEPBUAFX_MSGMAP@@XZ 00416150 f   OctopusScript.obj
 0001:00015160       ?GetThisMessageMap@COctopusScript@@KGPBUAFX_MSGMAP@@XZ 00416160 f   OctopusScript.obj
 0001:00015170       ??1COctopusScript@@UAE@XZ  00416170 f   OctopusScript.obj
 0001:00015230       ?OnButtonSeqLoad@COctopusScript@@IAEXXZ 00416230 f   OctopusScript.obj
 0001:000157a0       ?OnButtonSeqRun@COctopusScript@@IAEXXZ 004167a0 f   OctopusScript.obj
 0001:000158a0       ?OnButtonSeqStop@COctopusScript@@IAEXXZ 004168a0 f   OctopusScript.obj
 0001:000158f0       ?OnTimer@COctopusScript@@IAEXI@Z 004168f0 f   OctopusScript.obj
 0001:00017830       ??_ECOctopusScript@@UAEPAXI@Z 00418830 f i OctopusScript.obj
 0001:00017830       ??_GCOctopusScript@@UAEPAXI@Z 00418830 f i OctopusScript.obj
 0001:00017870       ??0COctopusShutterAndWheel@@QAE@PAVCWnd@@@Z 00418870 f   OctopusShutter.obj
 0001:00017990       ?DoDataExchange@COctopusShutterAndWheel@@MAEXPAVCDataExchange@@@Z 00418990 f   OctopusShutter.obj
 0001:00017a20       ?GetMessageMap@COctopusShutterAndWheel@@MBEPBUAFX_MSGMAP@@XZ 00418a20 f   OctopusShutter.obj
 0001:00017a30       ?GetThisMessageMap@COctopusShutterAndWheel@@KGPBUAFX_MSGMAP@@XZ 00418a30 f   OctopusShutter.obj
 0001:00017a40       ?OnInitDialog@COctopusShutterAndWheel@@MAEHXZ 00418a40 f   OctopusShutter.obj
 0001:00017af0       ??1COctopusShutterAndWheel@@UAE@XZ 00418af0 f   OctopusShutter.obj
 0001:00017c00       ?OnSnap@COctopusShutterAndWheel@@QAEXXZ 00418c00 f   OctopusShutter.obj
 0001:00017cb0       ?Loadem@COctopusShutterAndWheel@@IAEXXZ 00418cb0 f   OctopusShutter.obj
 0001:000180d0       ?ShutterOpen@COctopusShutterAndWheel@@QAEXXZ 004190d0 f   OctopusShutter.obj
 0001:00018150       ?ShutterPartial@COctopusShutterAndWheel@@QAEXE@Z 00419150 f   OctopusShutter.obj
 0001:00018210       ?ShutterClose@COctopusShutterAndWheel@@QAEXXZ 00419210 f   OctopusShutter.obj
 0001:000182a0       ?Filter@COctopusShutterAndWheel@@QAEXE@Z 004192a0 f   OctopusShutter.obj
 0001:00018330       ?ShutterReady@COctopusShutterAndWheel@@QAE_NXZ 00419330 f   OctopusShutter.obj
 0001:00018360       ?Read@COctopusShutterAndWheel@@IAEKPAXKPAK@Z 00419360 f   OctopusShutter.obj
 0001:00018390       ?SetBaudRate@COctopusShutterAndWheel@@IAEKK@Z 00419390 f   OctopusShutter.obj
 0001:000183c0       ?SetLatencyTimer@COctopusShutterAndWheel@@IAEKE@Z 004193c0 f   OctopusShutter.obj
 0001:000183f0       ?SetUSBParameters@COctopusShutterAndWheel@@IAEKKK@Z 004193f0 f   OctopusShutter.obj
 0001:00018420       ?Write@COctopusShutterAndWheel@@IAEKPAXKPAK@Z 00419420 f   OctopusShutter.obj
 0001:00018450       ?Open@COctopusShutterAndWheel@@IAEKPAX@Z 00419450 f   OctopusShutter.obj
 0001:00018480       ?OpenEx@COctopusShutterAndWheel@@IAEKPAXK@Z 00419480 f   OctopusShutter.obj
 0001:000184b0       ?ListDevices@COctopusShutterAndWheel@@IAEKPAX0K@Z 004194b0 f   OctopusShutter.obj
 0001:000184e0       ?Close@COctopusShutterAndWheel@@IAEKXZ 004194e0 f   OctopusShutter.obj
 0001:00018500       ?ResetDevice@COctopusShutterAndWheel@@IAEKXZ 00419500 f   OctopusShutter.obj
 0001:00018520       ?Purge@COctopusShutterAndWheel@@IAEKK@Z 00419520 f   OctopusShutter.obj
 0001:00018550       ?SetTimeouts@COctopusShutterAndWheel@@IAEKKK@Z 00419550 f   OctopusShutter.obj
 0001:00018580       ?GetQueueStatus@COctopusShutterAndWheel@@IAEKPAK@Z 00419580 f   OctopusShutter.obj
 0001:000185b0       ?OnCommand@COctopusShutterAndWheel@@MAEHIJ@Z 004195b0 f   OctopusShutter.obj
 0001:00018600       ?OnNMCustomdrawExecute@COctopusShutterAndWheel@@QAEXPAUtagNMHDR@@PAJ@Z 00419600 f   OctopusShutter.obj
 0001:00018660       ?UpdateShutterVal@COctopusShutterAndWheel@@IAEXXZ 00419660 f   OctopusShutter.obj
 0001:00018720       ?OnBnClickedImageJ@COctopusShutterAndWheel@@QAEXXZ 00419720 f   OctopusShutter.obj
 0001:00018760       ?OnKillFocusGeneral@COctopusShutterAndWheel@@IAEXXZ 00419760 f   OctopusShutter.obj
 0001:00018810       ?OnBnClickedReturnfiltercontrol@COctopusShutterAndWheel@@QAEXXZ 00419810 f   OctopusShutter.obj
 0001:00018830       ?ChangeFilterNumber@COctopusShutterAndWheel@@QAEXH@Z 00419830 f   OctopusShutter.obj
 0001:00018e00       ??_GCOctopusShutterAndWheel@@UAEPAXI@Z 00419e00 f i OctopusShutter.obj
 0001:00018e00       ??_ECOctopusShutterAndWheel@@UAEPAXI@Z 00419e00 f i OctopusShutter.obj
 0001:00018e40       ??0COctopusStage545@@QAE@PAVCWnd@@@Z 00419e40 f   OctopusStage545.obj
 0001:00018f70       ?OnTimer@COctopusStage545@@QAEXI@Z 00419f70 f   OctopusStage545.obj
 0001:000190b0       ?DoDataExchange@COctopusStage545@@MAEXPAVCDataExchange@@@Z 0041a0b0 f   OctopusStage545.obj
 0001:000191a0       ?GetMessageMap@COctopusStage545@@MBEPBUAFX_MSGMAP@@XZ 0041a1a0 f   OctopusStage545.obj
 0001:000191b0       ?GetThisMessageMap@COctopusStage545@@KGPBUAFX_MSGMAP@@XZ 0041a1b0 f   OctopusStage545.obj
 0001:000191c0       ?OnKillfocusGeneral@COctopusStage545@@QAEXXZ 0041a1c0 f   OctopusStage545.obj
 0001:000191e0       ??1COctopusStage545@@UAE@XZ 0041a1e0 f   OctopusStage545.obj
 0001:00019290       ?MoveLeft@COctopusStage545@@QAEXXZ 0041a290 f   OctopusStage545.obj
 0001:000192c0       ?MoveRight@COctopusStage545@@QAEXXZ 0041a2c0 f   OctopusStage545.obj
 0001:000192f0       ?MoveBack@COctopusStage545@@QAEXXZ 0041a2f0 f   OctopusStage545.obj
 0001:00019320       ?MoveFwd@COctopusStage545@@QAEXXZ 0041a320 f   OctopusStage545.obj
 0001:00019350       ?MoveUp@COctopusStage545@@QAEXXZ 0041a350 f   OctopusStage545.obj
 0001:00019380       ?MoveDown@COctopusStage545@@QAEXXZ 0041a380 f   OctopusStage545.obj
 0001:000193b0       ?MoveRelX@COctopusStage545@@QAEXN@Z 0041a3b0 f   OctopusStage545.obj
 0001:000195b0       ?MoveRelY@COctopusStage545@@QAEXN@Z 0041a5b0 f   OctopusStage545.obj
 0001:000197b0       ?MoveRelZ@COctopusStage545@@QAEXN@Z 0041a7b0 f   OctopusStage545.obj
 0001:00019940       ?OnStepSize1@COctopusStage545@@QAEXXZ 0041a940 f   OctopusStage545.obj
 0001:00019980       ?OnStepSize2@COctopusStage545@@QAEXXZ 0041a980 f   OctopusStage545.obj
 0001:000199c0       ?OnStepSize3@COctopusStage545@@QAEXXZ 0041a9c0 f   OctopusStage545.obj
 0001:00019a00       ?OnStepSize4@COctopusStage545@@QAEXXZ 0041aa00 f   OctopusStage545.obj
 0001:00019a40       ?OnStepSize5@COctopusStage545@@QAEXXZ 0041aa40 f   OctopusStage545.obj
 0001:00019a70       ?InitializeStage@COctopusStage545@@QAEHXZ 0041aa70 f   OctopusStage545.obj
 0001:00019de0       ?GetPosition@COctopusStage545@@QAEXXZ 0041ade0 f   OctopusStage545.obj
 0001:00019e70       ?Close@COctopusStage545@@QAEXXZ 0041ae70 f   OctopusStage545.obj
 0001:00019f30       ?StageCenter@COctopusStage545@@QAEXXZ 0041af30 f   OctopusStage545.obj
 0001:0001a060       ?OnSave@COctopusStage545@@QAEXXZ 0041b060 f   OctopusStage545.obj
 0001:0001a190       ?OnSaveGoTo@COctopusStage545@@QAEXXZ 0041b190 f   OctopusStage545.obj
 0001:0001a2c0       ?ShowPosition@COctopusStage545@@IAEXXZ 0041b2c0 f   OctopusStage545.obj
 0001:0001a370       ?OnCommand@COctopusStage545@@MAEHIJ@Z 0041b370 f   OctopusStage545.obj
 0001:0001a3c0       ?OnBnClickedButtonGotoxy@COctopusStage545@@QAEXXZ 0041b3c0 f   OctopusStage545.obj
 0001:0001acc0       ??_ECOctopusStage545@@UAEPAXI@Z 0041bcc0 f i OctopusStage545.obj
 0001:0001acc0       ??_GCOctopusStage545@@UAEPAXI@Z 0041bcc0 f i OctopusStage545.obj
 0001:0001ad00       ?CreateObject@COctopusView@@SGPAVCObject@@XZ 0041bd00 f   OctopusView.obj
 0001:0001ad80       ?_GetBaseClass@COctopusView@@KGPAUCRuntimeClass@@XZ 0041bd80 f   OctopusView.obj
 0001:0001ad90       ?GetThisClass@COctopusView@@SGPAUCRuntimeClass@@XZ 0041bd90 f   OctopusView.obj
 0001:0001ada0       ?GetRuntimeClass@COctopusView@@UBEPAUCRuntimeClass@@XZ 0041bda0 f   OctopusView.obj
 0001:0001adb0       ?GetMessageMap@COctopusView@@MBEPBUAFX_MSGMAP@@XZ 0041bdb0 f   OctopusView.obj
 0001:0001adc0       ?GetThisMessageMap@COctopusView@@KGPBUAFX_MSGMAP@@XZ 0041bdc0 f   OctopusView.obj
 0001:0001add0       ?DoDataExchange@COctopusView@@MAEXPAVCDataExchange@@@Z 0041bdd0 f   OctopusView.obj
 0001:0001adf0       ??0COctopusView@@IAE@XZ    0041bdf0 f   OctopusView.obj
 0001:0001ae30       ?OnInitialUpdate@COctopusView@@MAEXXZ 0041be30 f   OctopusView.obj
 0001:0001afc0       ??1COctopusView@@UAE@XZ    0041bfc0 f   OctopusView.obj
 0001:0001b410       ?OnOpenAndor@COctopusView@@IAEXXZ 0041c410 f   OctopusView.obj
 0001:0001b550       ?OnOpenScript@COctopusView@@IAEXXZ 0041c550 f   OctopusView.obj
 0001:0001b670       ?OnOpenWheel@COctopusView@@IAEXXZ 0041c670 f   OctopusView.obj
 0001:0001b850       ?OnOpenLED@COctopusView@@IAEXXZ 0041c850 f   OctopusView.obj
 0001:0001b970       ?OnOpenScope@COctopusView@@IAEXXZ 0041c970 f   OctopusView.obj
 0001:0001ba90       ?OnOpenStage545@COctopusView@@IAEXXZ 0041ca90 f   OctopusView.obj
 0001:0001bc60       ?OnOpenPiezo@COctopusView@@IAEXXZ 0041cc60 f   OctopusView.obj
 0001:0001be50       ?OnOpenGrating@COctopusView@@IAEXXZ 0041ce50 f   OctopusView.obj
 0001:0001c020       ?OnOpenLasers@COctopusView@@IAEXXZ 0041d020 f   OctopusView.obj
 0001:0001c1a0       ?OnOpenPolarizer@COctopusView@@IAEXXZ 0041d1a0 f   OctopusView.obj
 0001:0001c340       ?OnBnClickedStatusOpenFocus@COctopusView@@QAEXXZ 0041d340 f   OctopusView.obj
 0001:0001cb20       ?get_accChild@CFormView@@UAEJUtagVARIANT@@PAPAUIDispatch@@@Z 0041db20 f i OctopusView.obj
 0001:0001cb70       ?get_accChildCount@CFormView@@UAEJPAJ@Z 0041db70 f i OctopusView.obj
 0001:0001cba0       ?get_accName@CFormView@@UAEJUtagVARIANT@@PAPA_W@Z 0041dba0 f i OctopusView.obj
 0001:0001cbf0       ?accLocation@CFormView@@UAEJPAJ000UtagVARIANT@@@Z 0041dbf0 f i OctopusView.obj
 0001:0001cc50       ?accHitTest@CFormView@@UAEJJJPAUtagVARIANT@@@Z 0041dc50 f i OctopusView.obj
 0001:0001cc80       ??_ECOctopusView@@UAEPAXI@Z 0041dc80 f i OctopusView.obj
 0001:0001cc80       ??_GCOctopusView@@UAEPAXI@Z 0041dc80 f i OctopusView.obj
 0001:0001ccc0       ??0COctopusGlobals@@QAE@XZ 0041dcc0 f i OctopusView.obj
 0001:0001ccf0       ??1COctopusGlobals@@QAE@XZ 0041dcf0 f i OctopusView.obj
 0001:0001cd18       _PI_CloseConnection@4      0041dd18 f   PI_GCS2_DLL:PI_GCS2_DLL.dll
 0001:0001cd1e       _PI_SVO@12                 0041dd1e f   PI_GCS2_DLL:PI_GCS2_DLL.dll
 0001:0001cd24       _PI_qSAI@12                0041dd24 f   PI_GCS2_DLL:PI_GCS2_DLL.dll
 0001:0001cd2a       _PI_ConnectUSB@4           0041dd2a f   PI_GCS2_DLL:PI_GCS2_DLL.dll
 0001:0001cd30       _PI_MOV@12                 0041dd30 f   PI_GCS2_DLL:PI_GCS2_DLL.dll
 0001:0001cd36       _PI_IsMoving@12            0041dd36 f   PI_GCS2_DLL:PI_GCS2_DLL.dll
 0001:0001cd3c       _PI_qPOS@12                0041dd3c f   PI_GCS2_DLL:PI_GCS2_DLL.dll
 0001:0001cd42       _PI_EnumerateUSB@12        0041dd42 f   PI_GCS2_DLL:PI_GCS2_DLL.dll
 0001:0001cd48       _PI_JON@16                 0041dd48 f   PI_GCS2_DLL:PI_GCS2_DLL.dll
 0001:0001cd4e       _PI_qJON@16                0041dd4e f   PI_GCS2_DLL:PI_GCS2_DLL.dll
 0001:0001cd54       _PI_ConnectUSBWithBaudRate@8 0041dd54 f   PI_GCS2_DLL:PI_GCS2_DLL.dll
 0001:0001cd5a       _olDaInitialize@8          0041dd5a f   oldaapi32:oldaapi32.dll
 0001:0001cd60       _olDaTerminate@4           0041dd60 f   oldaapi32:oldaapi32.dll
 0001:0001cd66       _olDaReleaseDASS@4         0041dd66 f   oldaapi32:oldaapi32.dll
 0001:0001cd6c       _olDaPutSingleValue@20     0041dd6c f   oldaapi32:oldaapi32.dll
 0001:0001cd72       _olDaConfig@4              0041dd72 f   oldaapi32:oldaapi32.dll
 0001:0001cd78       _olDaSetDataFlow@8         0041dd78 f   oldaapi32:oldaapi32.dll
 0001:0001cd7e       _olDaGetDASS@16            0041dd7e f   oldaapi32:oldaapi32.dll
 0001:0001cd84       _FreeInternalMemory@0      0041dd84 f   Atmcd32m:ATMCD32D.DLL
 0001:0001cd8a       _Initialize@4              0041dd8a f   Atmcd32m:ATMCD32D.DLL
 0001:0001cd90       _ShutDown@0                0041dd90 f   Atmcd32m:ATMCD32D.DLL
 0001:0001cd96       _GetTemperature@4          0041dd96 f   Atmcd32m:ATMCD32D.DLL
 0001:0001cd9c       _CoolerOFF@0               0041dd9c f   Atmcd32m:ATMCD32D.DLL
 0001:0001cda2       _SetEMCCDGain@4            0041dda2 f   Atmcd32m:ATMCD32D.DLL
 0001:0001cda8       _SetNumberKinetics@4       0041dda8 f   Atmcd32m:ATMCD32D.DLL
 0001:0001cdae       _SetOutputAmplifier@4      0041ddae f   Atmcd32m:ATMCD32D.DLL
 0001:0001cdb4       _SetEMAdvanced@4           0041ddb4 f   Atmcd32m:ATMCD32D.DLL
 0001:0001cdba       _GetDetector@8             0041ddba f   Atmcd32m:ATMCD32D.DLL
 0001:0001cdc0       _CoolerON@0                0041ddc0 f   Atmcd32m:ATMCD32D.DLL
 0001:0001cdc6       _SetTemperature@4          0041ddc6 f   Atmcd32m:ATMCD32D.DLL
 0001:0001cdcc       _GetAcquiredData16@8       0041ddcc f   Atmcd32m:ATMCD32D.DLL
 0001:0001cdd2       _GetStatus@4               0041ddd2 f   Atmcd32m:ATMCD32D.DLL
 0001:0001cdd8       _StartAcquisition@0        0041ddd8 f   Atmcd32m:ATMCD32D.DLL
 0001:0001cdde       _SetImage@24               0041ddde f   Atmcd32m:ATMCD32D.DLL
 0001:0001cde4       _SetShutter@16             0041dde4 f   Atmcd32m:ATMCD32D.DLL
 0001:0001cdea       _SetTriggerMode@4          0041ddea f   Atmcd32m:ATMCD32D.DLL
 0001:0001cdf0       _SetExposureTime@4         0041ddf0 f   Atmcd32m:ATMCD32D.DLL
 0001:0001cdf6       _SetAcquisitionMode@4      0041ddf6 f   Atmcd32m:ATMCD32D.DLL
 0001:0001cdfc       _SetReadMode@4             0041ddfc f   Atmcd32m:ATMCD32D.DLL
 0001:0001ce02       _SetKineticCycleTime@4     0041de02 f   Atmcd32m:ATMCD32D.DLL
 0001:0001ce08       _SetAccumulationCycleTime@4 0041de08 f   Atmcd32m:ATMCD32D.DLL
 0001:0001ce0e       _SetNumberAccumulations@4  0041de0e f   Atmcd32m:ATMCD32D.DLL
 0001:0001ce14       _SetFrameTransferMode@4    0041de14 f   Atmcd32m:ATMCD32D.DLL
 0001:0001ce1a       _SetFastExtTrigger@4       0041de1a f   Atmcd32m:ATMCD32D.DLL
 0001:0001ce20       _AbortAcquisition@0        0041de20 f   Atmcd32m:ATMCD32D.DLL
 0001:0001ce26       _SetEMGainMode@4           0041de26 f   Atmcd32m:ATMCD32D.DLL
 0001:0001ce2c       _SetVSSpeed@4              0041de2c f   Atmcd32m:ATMCD32D.DLL
 0001:0001ce32       _SetPreAmpGain@4           0041de32 f   Atmcd32m:ATMCD32D.DLL
 0001:0001ce38       _SetHSSpeed@8              0041de38 f   Atmcd32m:ATMCD32D.DLL
 0001:0001ce3e       _SetADChannel@4            0041de3e f   Atmcd32m:ATMCD32D.DLL
 0001:0001ce44       _GetImages16@24            0041de44 f   Atmcd32m:ATMCD32D.DLL
 0001:0001ce4a       _GetNumberNewImages@8      0041de4a f   Atmcd32m:ATMCD32D.DLL
 0001:0001ce50       _slevmar_der               0041de50 f   levmar:lm.obj
 0001:0001e010       _slevmar_dif               0041f010 f   levmar:lm.obj
 0001:0001f530       _dlevmar_der               00420530 f   levmar:lm.obj
 0001:00020630       _dlevmar_dif               00421630 f   levmar:lm.obj
 0001:00021ab0       _slevmar_trans_mat_mat_mult 00422ab0 f   levmar:misc.obj
 0001:00021b00       _slevmar_fdif_forw_jac_approx 00422b00 f   levmar:misc.obj
 0001:00021d00       _slevmar_fdif_cent_jac_approx 00422d00 f   levmar:misc.obj
 0001:00021f20       _slevmar_chkjac            00422f20 f   levmar:misc.obj
 0001:00022680       _slevmar_covar             00423680 f   levmar:misc.obj
 0001:00022720       _slevmar_stddev            00423720 f   levmar:misc.obj
 0001:00022740       _slevmar_corcoef           00423740 f   levmar:misc.obj
 0001:00022790       _slevmar_R2                00423790 f   levmar:misc.obj
 0001:000228e0       _slevmar_box_check         004238e0 f   levmar:misc.obj
 0001:00022930       _slevmar_chol              00423930 f   levmar:misc.obj
 0001:00022a40       _slevmar_L2nrmxmy          00423a40 f   levmar:misc.obj
 0001:00022ee0       _dlevmar_trans_mat_mat_mult 00423ee0 f   levmar:misc.obj
 0001:00022f30       _dlevmar_fdif_forw_jac_approx 00423f30 f   levmar:misc.obj
 0001:00023110       _dlevmar_fdif_cent_jac_approx 00424110 f   levmar:misc.obj
 0001:00023320       _dlevmar_chkjac            00424320 f   levmar:misc.obj
 0001:000239c0       _dlevmar_covar             004249c0 f   levmar:misc.obj
 0001:00023a60       _dlevmar_stddev            00424a60 f   levmar:misc.obj
 0001:00023a80       _dlevmar_corcoef           00424a80 f   levmar:misc.obj
 0001:00023ac0       _dlevmar_R2                00424ac0 f   levmar:misc.obj
 0001:00023bd0       _dlevmar_box_check         00424bd0 f   levmar:misc.obj
 0001:00023c20       _dlevmar_chol              00424c20 f   levmar:misc.obj
 0001:00023d40       _dlevmar_L2nrmxmy          00424d40 f   levmar:misc.obj
 0001:00024070       _dAx_eq_b_QR               00425070 f   levmar:Axb.obj
 0001:00024340       _dAx_eq_b_QRLS             00425340 f   levmar:Axb.obj
 0001:00024740       _dAx_eq_b_Chol             00425740 f   levmar:Axb.obj
 0001:000248c0       _dAx_eq_b_LU               004258c0 f   levmar:Axb.obj
 0001:00024a80       _dAx_eq_b_SVD              00425a80 f   levmar:Axb.obj
 0001:00024d80       _dAx_eq_b_BK               00425d80 f   levmar:Axb.obj
 0001:00024f90       _sAx_eq_b_QR               00425f90 f   levmar:Axb.obj
 0001:00025260       _sAx_eq_b_QRLS             00426260 f   levmar:Axb.obj
 0001:00025660       _sAx_eq_b_Chol             00426660 f   levmar:Axb.obj
 0001:000257e0       _sAx_eq_b_LU               004267e0 f   levmar:Axb.obj
 0001:000259b0       _sAx_eq_b_SVD              004269b0 f   levmar:Axb.obj
 0001:00025cc0       _sAx_eq_b_BK               00426cc0 f   levmar:Axb.obj
 0001:00025ec6       ??3@YAXPAX@Z               00426ec6 f   mfc90d:mfc90d.dll
 0001:00025ecc       ??3CObject@@SGXPAX@Z       00426ecc f   mfc90d:mfc90d.dll
 0001:00025ed2       ??2CObject@@SGPAXI@Z       00426ed2 f   mfc90d:mfc90d.dll
 0001:00025ed8       ??0CWnd@@QAE@XZ            00426ed8 f   mfc90d:mfc90d.dll
 0001:00025ede       ?Serialize@CObject@@UAEXAAVCArchive@@@Z 00426ede f   mfc90d:mfc90d.dll
 0001:00025ee4       ?AssertValid@CWnd@@UBEXXZ  00426ee4 f   mfc90d:mfc90d.dll
 0001:00025eea       ?Dump@CWnd@@UBEXAAVCDumpContext@@@Z 00426eea f   mfc90d:mfc90d.dll
 0001:00025ef0       ?OnCmdMsg@CCmdTarget@@UAEHIHPAXPAUAFX_CMDHANDLERINFO@@@Z 00426ef0 f   mfc90d:mfc90d.dll
 0001:00025ef6       ?OnFinalRelease@CWnd@@UAEXXZ 00426ef6 f   mfc90d:mfc90d.dll
 0001:00025efc       ?IsInvokeAllowed@CCmdTarget@@UAEHJ@Z 00426efc f   mfc90d:mfc90d.dll
 0001:00025f02       ?GetDispatchIID@CCmdTarget@@UAEHPAU_GUID@@@Z 00426f02 f   mfc90d:mfc90d.dll
 0001:00025f08       ?GetTypeInfoCount@CCmdTarget@@UAEIXZ 00426f08 f   mfc90d:mfc90d.dll
 0001:00025f0e       ?GetTypeLibCache@CCmdTarget@@UAEPAVCTypeLibCache@@XZ 00426f0e f   mfc90d:mfc90d.dll
 0001:00025f14       ?GetTypeLib@CCmdTarget@@UAEJKPAPAUITypeLib@@@Z 00426f14 f   mfc90d:mfc90d.dll
 0001:00025f1a       ?GetMessageMap@CWnd@@MBEPBUAFX_MSGMAP@@XZ 00426f1a f   mfc90d:mfc90d.dll
 0001:00025f20       ?GetCommandMap@CCmdTarget@@MBEPBUAFX_OLECMDMAP@@XZ 00426f20 f   mfc90d:mfc90d.dll
 0001:00025f26       ?GetDispatchMap@CCmdTarget@@MBEPBUAFX_DISPMAP@@XZ 00426f26 f   mfc90d:mfc90d.dll
 0001:00025f2c       ?GetConnectionMap@CCmdTarget@@MBEPBUAFX_CONNECTIONMAP@@XZ 00426f2c f   mfc90d:mfc90d.dll
 0001:00025f32       ?GetInterfaceMap@CWnd@@MBEPBUAFX_INTERFACEMAP@@XZ 00426f32 f   mfc90d:mfc90d.dll
 0001:00025f38       ?GetEventSinkMap@CCmdTarget@@MBEPBUAFX_EVENTSINKMAP@@XZ 00426f38 f   mfc90d:mfc90d.dll
 0001:00025f3e       ?OnCreateAggregates@CCmdTarget@@UAEHXZ 00426f3e f   mfc90d:mfc90d.dll
 0001:00025f44       ?GetInterfaceHook@CCmdTarget@@UAEPAUIUnknown@@PBX@Z 00426f44 f   mfc90d:mfc90d.dll
 0001:00025f4a       ?GetExtraConnectionPoints@CCmdTarget@@MAEHPAVCPtrArray@@@Z 00426f4a f   mfc90d:mfc90d.dll
 0001:00025f50       ?GetConnectionHook@CCmdTarget@@MAEPAUIConnectionPoint@@ABU_GUID@@@Z 00426f50 f   mfc90d:mfc90d.dll
 0001:00025f56       ?PreSubclassWindow@CWnd@@UAEXXZ 00426f56 f   mfc90d:mfc90d.dll
 0001:00025f5c       ?CreateEx@CWnd@@UAEHKPBD0KABUtagRECT@@PAV1@IPAX@Z 00426f5c f   mfc90d:mfc90d.dll
 0001:00025f62       ?CreateEx@CWnd@@UAEHKPBD0KHHHHPAUHWND__@@PAUHMENU__@@PAX@Z 00426f62 f   mfc90d:mfc90d.dll
 0001:00025f68       ?DestroyWindow@CWnd@@UAEHXZ 00426f68 f   mfc90d:mfc90d.dll
 0001:00025f6e       ?PreCreateWindow@CWnd@@UAEHAAUtagCREATESTRUCTA@@@Z 00426f6e f   mfc90d:mfc90d.dll
 0001:00025f74       ?CalcWindowRect@CWnd@@UAEXPAUtagRECT@@I@Z 00426f74 f   mfc90d:mfc90d.dll
 0001:00025f7a       ?GetMenu@CWnd@@UBEPAVCMenu@@XZ 00426f7a f   mfc90d:mfc90d.dll
 0001:00025f80       ?SetMenu@CWnd@@UAEHPAVCMenu@@@Z 00426f80 f   mfc90d:mfc90d.dll
 0001:00025f86       ?OnToolHitTest@CWnd@@UBEHVCPoint@@PAUtagTOOLINFOA@@@Z 00426f86 f   mfc90d:mfc90d.dll
 0001:00025f8c       ?GetScrollBarCtrl@CWnd@@UBEPAVCScrollBar@@H@Z 00426f8c f   mfc90d:mfc90d.dll
 0001:00025f92       ?WinHelpA@CWnd@@UAEXKI@Z   00426f92 f   mfc90d:mfc90d.dll
 0001:00025f98       ?HtmlHelpA@CWnd@@UAEXKI@Z  00426f98 f   mfc90d:mfc90d.dll
 0001:00025f9e       ?WinHelpInternal@CWnd@@UAEXKI@Z 00426f9e f   mfc90d:mfc90d.dll
 0001:00025fa4       ?ContinueModal@CWnd@@UAEHXZ 00426fa4 f   mfc90d:mfc90d.dll
 0001:00025faa       ?EndModalLoop@CWnd@@UAEXH@Z 00426faa f   mfc90d:mfc90d.dll
 0001:00025fb0       ?EnsureStdObj@CWnd@@UAEJXZ 00426fb0 f   mfc90d:mfc90d.dll
 0001:00025fb6       ?get_accParent@CWnd@@UAEJPAPAUIDispatch@@@Z 00426fb6 f   mfc90d:mfc90d.dll
 0001:00025fbc       ?get_accChildCount@CWnd@@UAEJPAJ@Z 00426fbc f   mfc90d:mfc90d.dll
 0001:00025fc2       ?get_accChild@CWnd@@UAEJUtagVARIANT@@PAPAUIDispatch@@@Z 00426fc2 f   mfc90d:mfc90d.dll
 0001:00025fc8       ?get_accName@CWnd@@UAEJUtagVARIANT@@PAPA_W@Z 00426fc8 f   mfc90d:mfc90d.dll
 0001:00025fce       ?get_accValue@CWnd@@UAEJUtagVARIANT@@PAPA_W@Z 00426fce f   mfc90d:mfc90d.dll
 0001:00025fd4       ?get_accDescription@CWnd@@UAEJUtagVARIANT@@PAPA_W@Z 00426fd4 f   mfc90d:mfc90d.dll
 0001:00025fda       ?get_accRole@CWnd@@UAEJUtagVARIANT@@PAU2@@Z 00426fda f   mfc90d:mfc90d.dll
 0001:00025fe0       ?get_accState@CWnd@@UAEJUtagVARIANT@@PAU2@@Z 00426fe0 f   mfc90d:mfc90d.dll
 0001:00025fe6       ?get_accHelp@CWnd@@UAEJUtagVARIANT@@PAPA_W@Z 00426fe6 f   mfc90d:mfc90d.dll
 0001:00025fec       ?get_accHelpTopic@CWnd@@UAEJPAPA_WUtagVARIANT@@PAJ@Z 00426fec f   mfc90d:mfc90d.dll
 0001:00025ff2       ?get_accKeyboardShortcut@CWnd@@UAEJUtagVARIANT@@PAPA_W@Z 00426ff2 f   mfc90d:mfc90d.dll
 0001:00025ff8       ?get_accFocus@CWnd@@UAEJPAUtagVARIANT@@@Z 00426ff8 f   mfc90d:mfc90d.dll
 0001:00025ffe       ?get_accSelection@CWnd@@UAEJPAUtagVARIANT@@@Z 00426ffe f   mfc90d:mfc90d.dll
 0001:00026004       ?get_accDefaultAction@CWnd@@UAEJUtagVARIANT@@PAPA_W@Z 00427004 f   mfc90d:mfc90d.dll
 0001:0002600a       ?accSelect@CWnd@@UAEJJUtagVARIANT@@@Z 0042700a f   mfc90d:mfc90d.dll
 0001:00026010       ?accLocation@CWnd@@UAEJPAJ000UtagVARIANT@@@Z 00427010 f   mfc90d:mfc90d.dll
 0001:00026016       ?accNavigate@CWnd@@UAEJJUtagVARIANT@@PAU2@@Z 00427016 f   mfc90d:mfc90d.dll
 0001:0002601c       ?accHitTest@CWnd@@UAEJJJPAUtagVARIANT@@@Z 0042701c f   mfc90d:mfc90d.dll
 0001:00026022       ?accDoDefaultAction@CWnd@@UAEJUtagVARIANT@@@Z 00427022 f   mfc90d:mfc90d.dll
 0001:00026028       ?put_accName@CWnd@@UAEJUtagVARIANT@@PA_W@Z 00427028 f   mfc90d:mfc90d.dll
 0001:0002602e       ?put_accValue@CWnd@@UAEJUtagVARIANT@@PA_W@Z 0042702e f   mfc90d:mfc90d.dll
 0001:00026034       ?SetProxy@CWnd@@UAEJPAUIAccessibleProxy@@@Z 00427034 f   mfc90d:mfc90d.dll
 0001:0002603a       ?CreateAccessibleProxy@CWnd@@UAEJIJPAJ@Z 0042703a f   mfc90d:mfc90d.dll
 0001:00026040       ?OnCommand@CWnd@@MAEHIJ@Z  00427040 f   mfc90d:mfc90d.dll
 0001:00026046       ?OnNotify@CWnd@@MAEHIJPAJ@Z 00427046 f   mfc90d:mfc90d.dll
 0001:0002604c       ?GetSuperWndProcAddr@CWnd@@MAEPAP6GJPAUHWND__@@IIJ@ZXZ 0042704c f   mfc90d:mfc90d.dll
 0001:00026052       ?DoDataExchange@CWnd@@MAEXPAVCDataExchange@@@Z 00427052 f   mfc90d:mfc90d.dll
 0001:00026058       ?BeginModalState@CWnd@@UAEXXZ 00427058 f   mfc90d:mfc90d.dll
 0001:0002605e       ?EndModalState@CWnd@@UAEXXZ 0042705e f   mfc90d:mfc90d.dll
 0001:00026064       ?PreTranslateMessage@CWnd@@UAEHPAUtagMSG@@@Z 00427064 f   mfc90d:mfc90d.dll
 0001:0002606a       ?OnAmbientProperty@CWnd@@UAEHPAVCOleControlSite@@JPAUtagVARIANT@@@Z 0042706a f   mfc90d:mfc90d.dll
 0001:00026070       ?WindowProc@CWnd@@MAEJIIJ@Z 00427070 f   mfc90d:mfc90d.dll
 0001:00026076       ?OnWndMsg@CWnd@@MAEHIIJPAJ@Z 00427076 f   mfc90d:mfc90d.dll
 0001:0002607c       ?DefWindowProcA@CWnd@@MAEJIIJ@Z 0042707c f   mfc90d:mfc90d.dll
 0001:00026082       ?PostNcDestroy@CWnd@@MAEXXZ 00427082 f   mfc90d:mfc90d.dll
 0001:00026088       ?OnChildNotify@CWnd@@MAEHIIJPAJ@Z 00427088 f   mfc90d:mfc90d.dll
 0001:0002608e       ?CheckAutoCenter@CWnd@@UAEHXZ 0042708e f   mfc90d:mfc90d.dll
 0001:00026094       ?IsFrameWnd@CWnd@@UBEHXZ   00427094 f   mfc90d:mfc90d.dll
 0001:0002609a       ?CreateControlContainer@CWnd@@MAEHPAPAVCOleControlContainer@@@Z 0042709a f   mfc90d:mfc90d.dll
 0001:000260a0       ?CreateControlSite@CWnd@@MAEHPAVCOleControlContainer@@PAPAVCOleControlSite@@IABU_GUID@@@Z 004270a0 f   mfc90d:mfc90d.dll
 0001:000260a6       ?SetOccDialogInfo@CWnd@@MAEHPAU_AFX_OCC_DIALOG_INFO@@@Z 004270a6 f   mfc90d:mfc90d.dll
 0001:000260ac       ?GetOccDialogInfo@CWnd@@MAEPAU_AFX_OCC_DIALOG_INFO@@XZ 004270ac f   mfc90d:mfc90d.dll
 0001:000260b2       ?CreateControl@CWnd@@QAEHABU_GUID@@PBDKABUtagRECT@@PAV1@IPAVCFile@@HPA_W@Z 004270b2 f   mfc90d:mfc90d.dll
 0001:000260b8       ??1CWnd@@UAE@XZ            004270b8 f   mfc90d:mfc90d.dll
 0001:000260be       ?GetThisClass@CWnd@@SGPAUCRuntimeClass@@XZ 004270be f   mfc90d:mfc90d.dll
 0001:000260c4       ??0?$CStringT@DV?$StrTraitMFC_DLL@DV?$ChTraitsCRT@D@ATL@@@@@ATL@@QAE@XZ 004270c4 f   mfc90d:mfc90d.dll
 0001:000260ca       ??1?$CStringT@DV?$StrTraitMFC_DLL@DV?$ChTraitsCRT@D@ATL@@@@@ATL@@QAE@XZ 004270ca f   mfc90d:mfc90d.dll
 0001:000260d0       ??B?$CSimpleStringT@D$00@ATL@@QBEPBDXZ 004270d0 f   mfc90d:mfc90d.dll
 0001:000260d6       ?GetThisClass@CDialog@@SGPAUCRuntimeClass@@XZ 004270d6 f   mfc90d:mfc90d.dll
 0001:000260dc       ??0CDialog@@QAE@IPAVCWnd@@@Z 004270dc f   mfc90d:mfc90d.dll
 0001:000260e2       ?AssertValid@CDialog@@UBEXXZ 004270e2 f   mfc90d:mfc90d.dll
 0001:000260e8       ?Dump@CDialog@@UBEXAAVCDumpContext@@@Z 004270e8 f   mfc90d:mfc90d.dll
 0001:000260ee       ?OnCmdMsg@CDialog@@UAEHIHPAXPAUAFX_CMDHANDLERINFO@@@Z 004270ee f   mfc90d:mfc90d.dll
 0001:000260f4       ?Create@CWnd@@UAEHPBD0KABUtagRECT@@PAV1@IPAUCCreateContext@@@Z 004270f4 f   mfc90d:mfc90d.dll
 0001:000260fa       ?PreTranslateMessage@CDialog@@UAEHPAUtagMSG@@@Z 004270fa f   mfc90d:mfc90d.dll
 0001:00026100       ?CheckAutoCenter@CDialog@@UAEHXZ 00427100 f   mfc90d:mfc90d.dll
 0001:00026106       ?SetOccDialogInfo@CDialog@@MAEHPAU_AFX_OCC_DIALOG_INFO@@@Z 00427106 f   mfc90d:mfc90d.dll
 0001:0002610c       ?GetOccDialogInfo@CDialog@@MAEPAU_AFX_OCC_DIALOG_INFO@@XZ 0042710c f   mfc90d:mfc90d.dll
 0001:00026112       ?Create@CDialog@@UAEHIPAVCWnd@@@Z 00427112 f   mfc90d:mfc90d.dll
 0001:00026118       ?Create@CDialog@@UAEHPBDPAVCWnd@@@Z 00427118 f   mfc90d:mfc90d.dll
 0001:0002611e       ?CreateIndirect@CDialog@@UAEHPAXPAVCWnd@@@Z 0042711e f   mfc90d:mfc90d.dll
 0001:00026124       ?CreateIndirect@CDialog@@UAEHPBUDLGTEMPLATE@@PAVCWnd@@PAX@Z 00427124 f   mfc90d:mfc90d.dll
 0001:0002612a       ?DoModal@CDialog@@UAEHXZ   0042712a f   mfc90d:mfc90d.dll
 0001:00026130       ?OnInitDialog@CDialog@@UAEHXZ 00427130 f   mfc90d:mfc90d.dll
 0001:00026136       ?OnSetFont@CDialog@@UAEXPAVCFont@@@Z 00427136 f   mfc90d:mfc90d.dll
 0001:0002613c       ?OnOK@CDialog@@MAEXXZ      0042713c f   mfc90d:mfc90d.dll
 0001:00026142       ?OnCancel@CDialog@@MAEXXZ  00427142 f   mfc90d:mfc90d.dll
 0001:00026148       ?PreInitDialog@CDialog@@MAEXXZ 00427148 f   mfc90d:mfc90d.dll
 0001:0002614e       ??1CDialog@@UAE@XZ         0042714e f   mfc90d:mfc90d.dll
 0001:00026154       ?GetThisMessageMap@CDialog@@KGPBUAFX_MSGMAP@@XZ 00427154 f   mfc90d:mfc90d.dll
 0001:0002615a       ?GetThisClass@CFrameWnd@@SGPAUCRuntimeClass@@XZ 0042715a f   mfc90d:mfc90d.dll
 0001:00026160       ??0CFrameWnd@@QAE@XZ       00427160 f   mfc90d:mfc90d.dll
 0001:00026166       ?AssertValid@CFrameWnd@@UBEXXZ 00427166 f   mfc90d:mfc90d.dll
 0001:0002616c       ?Dump@CFrameWnd@@UBEXAAVCDumpContext@@@Z 0042716c f   mfc90d:mfc90d.dll
 0001:00026172       ?OnCmdMsg@CFrameWnd@@UAEHIHPAXPAUAFX_CMDHANDLERINFO@@@Z 00427172 f   mfc90d:mfc90d.dll
 0001:00026178       ?GetMessageMap@CFrameWnd@@MBEPBUAFX_MSGMAP@@XZ 00427178 f   mfc90d:mfc90d.dll
 0001:0002617e       ?GetMenu@CFrameWnd@@UBEPAVCMenu@@XZ 0042717e f   mfc90d:mfc90d.dll
 0001:00026184       ?SetMenu@CFrameWnd@@UAEHPAVCMenu@@@Z 00427184 f   mfc90d:mfc90d.dll
 0001:0002618a       ?OnCommand@CFrameWnd@@MAEHIJ@Z 0042718a f   mfc90d:mfc90d.dll
 0001:00026190       ?BeginModalState@CFrameWnd@@UAEXXZ 00427190 f   mfc90d:mfc90d.dll
 0001:00026196       ?EndModalState@CFrameWnd@@UAEXXZ 00427196 f   mfc90d:mfc90d.dll
 0001:0002619c       ?PreTranslateMessage@CFrameWnd@@UAEHPAUtagMSG@@@Z 0042719c f   mfc90d:mfc90d.dll
 0001:000261a2       ?PostNcDestroy@CFrameWnd@@MAEXXZ 004271a2 f   mfc90d:mfc90d.dll
 0001:000261a8       ?IsFrameWnd@CFrameWnd@@UBEHXZ 004271a8 f   mfc90d:mfc90d.dll
 0001:000261ae       ?Create@CFrameWnd@@UAEHPBD0KABUtagRECT@@PAVCWnd@@0KPAUCCreateContext@@@Z 004271ae f   mfc90d:mfc90d.dll
 0001:000261b4       ?LoadFrame@CFrameWnd@@UAEHIKPAVCWnd@@PAUCCreateContext@@@Z 004271b4 f   mfc90d:mfc90d.dll
 0001:000261ba       ?GetActiveDocument@CFrameWnd@@UAEPAVCDocument@@XZ 004271ba f   mfc90d:mfc90d.dll
 0001:000261c0       ?GetActiveFrame@CFrameWnd@@UAEPAV1@XZ 004271c0 f   mfc90d:mfc90d.dll
 0001:000261c6       ?GetMessageString@CFrameWnd@@UBEXIAAV?$CStringT@DV?$StrTraitMFC_DLL@DV?$ChTraitsCRT@D@ATL@@@@@ATL@@@Z 004271c6 f   mfc90d:mfc90d.dll
 0001:000261cc       ?RecalcLayout@CFrameWnd@@UAEXH@Z 004271cc f   mfc90d:mfc90d.dll
 0001:000261d2       ?ActivateFrame@CFrameWnd@@UAEXH@Z 004271d2 f   mfc90d:mfc90d.dll
 0001:000261d8       ?SetMenuBarVisibility@CFrameWnd@@UAEXK@Z 004271d8 f   mfc90d:mfc90d.dll
 0001:000261de       ?GetMenuBarVisibility@CFrameWnd@@UBEKXZ 004271de f   mfc90d:mfc90d.dll
 0001:000261e4       ?SetMenuBarState@CFrameWnd@@UAEHK@Z 004271e4 f   mfc90d:mfc90d.dll
 0001:000261ea       ?GetMenuBarState@CFrameWnd@@UBEKXZ 004271ea f   mfc90d:mfc90d.dll
 0001:000261f0       ?OnSetPreviewMode@CFrameWnd@@UAEXHPAUCPrintPreviewState@@@Z 004271f0 f   mfc90d:mfc90d.dll
 0001:000261f6       ?GetMessageBar@CFrameWnd@@UAEPAVCWnd@@XZ 004271f6 f   mfc90d:mfc90d.dll
 0001:000261fc       ?NegotiateBorderSpace@CFrameWnd@@UAEHIPAUtagRECT@@@Z 004271fc f   mfc90d:mfc90d.dll
 0001:00026202       ?OnCreateClient@CFrameWnd@@MAEHPAUtagCREATESTRUCTA@@PAUCCreateContext@@@Z 00427202 f   mfc90d:mfc90d.dll
 0001:00026208       ?OnUpdateFrameTitle@CFrameWnd@@UAEXH@Z 00427208 f   mfc90d:mfc90d.dll
 0001:0002620e       ?OnUpdateFrameMenu@CFrameWnd@@UAEXPAUHMENU__@@@Z 0042720e f   mfc90d:mfc90d.dll
 0001:00026214       ?GetDefaultAccelerator@CFrameWnd@@UAEPAUHACCEL__@@XZ 00427214 f   mfc90d:mfc90d.dll
 0001:0002621a       ?DelayUpdateFrameMenu@CFrameWnd@@UAEXPAUHMENU__@@@Z 0042721a f   mfc90d:mfc90d.dll
 0001:00026220       ?ExitHelpMode@CFrameWnd@@UAEXXZ 00427220 f   mfc90d:mfc90d.dll
 0001:00026226       ?OnShowMenuBar@CFrameWnd@@MAEXXZ 00427226 f   mfc90d:mfc90d.dll
 0001:0002622c       ?OnHideMenuBar@CFrameWnd@@MAEXXZ 0042722c f   mfc90d:mfc90d.dll
 0001:00026232       ??1CFrameWnd@@UAE@XZ       00427232 f   mfc90d:mfc90d.dll
 0001:00026238       ?PreCreateWindow@CFrameWnd@@MAEHAAUtagCREATESTRUCTA@@@Z 00427238 f   mfc90d:mfc90d.dll
 0001:0002623e       ??0CWinApp@@QAE@PBD@Z      0042723e f   mfc90d:mfc90d.dll
 0001:00026244       ?GetRuntimeClass@CWinApp@@UBEPAUCRuntimeClass@@XZ 00427244 f   mfc90d:mfc90d.dll
 0001:0002624a       ?AssertValid@CWinApp@@UBEXXZ 0042724a f   mfc90d:mfc90d.dll
 0001:00026250       ?Dump@CWinApp@@UBEXAAVCDumpContext@@@Z 00427250 f   mfc90d:mfc90d.dll
 0001:00026256       ?OnFinalRelease@CCmdTarget@@UAEXXZ 00427256 f   mfc90d:mfc90d.dll
 0001:0002625c       ?GetMessageMap@CWinApp@@MBEPBUAFX_MSGMAP@@XZ 0042725c f   mfc90d:mfc90d.dll
 0001:00026262       ?GetInterfaceMap@CCmdTarget@@MBEPBUAFX_INTERFACEMAP@@XZ 00427262 f   mfc90d:mfc90d.dll
 0001:00026268       ?Run@CWinApp@@UAEHXZ       00427268 f   mfc90d:mfc90d.dll
 0001:0002626e       ?PreTranslateMessage@CWinThread@@UAEHPAUtagMSG@@@Z 0042726e f   mfc90d:mfc90d.dll
 0001:00026274       ?PumpMessage@CWinThread@@UAEHXZ 00427274 f   mfc90d:mfc90d.dll
 0001:0002627a       ?OnIdle@CWinApp@@UAEHJ@Z   0042727a f   mfc90d:mfc90d.dll
 0001:00026280       ?IsIdleMessage@CWinThread@@UAEHPAUtagMSG@@@Z 00427280 f   mfc90d:mfc90d.dll
 0001:00026286       ?ProcessWndProcException@CWinApp@@UAEJPAVCException@@PBUtagMSG@@@Z 00427286 f   mfc90d:mfc90d.dll
 0001:0002628c       ?ProcessMessageFilter@CWinThread@@UAEHHPAUtagMSG@@@Z 0042728c f   mfc90d:mfc90d.dll
 0001:00026292       ?GetMainWnd@CWinThread@@UAEPAVCWnd@@XZ 00427292 f   mfc90d:mfc90d.dll
 0001:00026298       ?Delete@CWinThread@@UAEXXZ 00427298 f   mfc90d:mfc90d.dll
 0001:0002629e       ?InitLibId@CWinApp@@UAEXXZ 0042729e f   mfc90d:mfc90d.dll
 0001:000262a4       ?Register@CWinApp@@UAEHXZ  004272a4 f   mfc90d:mfc90d.dll
 0001:000262aa       ?Unregister@CWinApp@@UAEHXZ 004272aa f   mfc90d:mfc90d.dll
 0001:000262b0       ?OpenDocumentFile@CWinApp@@UAEPAVCDocument@@PBD@Z 004272b0 f   mfc90d:mfc90d.dll
 0001:000262b6       ?AddToRecentFileList@CWinApp@@UAEXPBD@Z 004272b6 f   mfc90d:mfc90d.dll
 0001:000262bc       ?InitApplication@CWinApp@@UAEHXZ 004272bc f   mfc90d:mfc90d.dll
 0001:000262c2       ?SaveAllModified@CWinApp@@UAEHXZ 004272c2 f   mfc90d:mfc90d.dll
 0001:000262c8       ?DoMessageBox@CWinApp@@UAEHPBDII@Z 004272c8 f   mfc90d:mfc90d.dll
 0001:000262ce       ?DoWaitCursor@CWinApp@@UAEXH@Z 004272ce f   mfc90d:mfc90d.dll
 0001:000262d4       ?OnDDECommand@CWinApp@@UAEHPAD@Z 004272d4 f   mfc90d:mfc90d.dll
 0001:000262da       ?WinHelpA@CWinApp@@UAEXKI@Z 004272da f   mfc90d:mfc90d.dll
 0001:000262e0       ?HtmlHelpA@CWinApp@@UAEXKI@Z 004272e0 f   mfc90d:mfc90d.dll
 0001:000262e6       ?WinHelpInternal@CWinApp@@UAEXKI@Z 004272e6 f   mfc90d:mfc90d.dll
 0001:000262ec       ?LoadAppLangResourceDLL@CWinApp@@UAEPAUHINSTANCE__@@XZ 004272ec f   mfc90d:mfc90d.dll
 0001:000262f2       ?LoadSysPolicies@CWinApp@@UAEHXZ 004272f2 f   mfc90d:mfc90d.dll
 0001:000262f8       ??1CWinApp@@UAE@XZ         004272f8 f   mfc90d:mfc90d.dll
 0001:000262fe       ??1CCommandLineInfo@@UAE@XZ 004272fe f   mfc90d:mfc90d.dll
 0001:00026304       ?ProcessShellCommand@CWinApp@@QAEHAAVCCommandLineInfo@@@Z 00427304 f   mfc90d:mfc90d.dll
 0001:0002630a       ?ParseCommandLine@CWinApp@@QAEXAAVCCommandLineInfo@@@Z 0042730a f   mfc90d:mfc90d.dll
 0001:00026310       ??0CCommandLineInfo@@QAE@XZ 00427310 f   mfc90d:mfc90d.dll
 0001:00026316       ?AddDocTemplate@CWinApp@@QAEXPAVCDocTemplate@@@Z 00427316 f   mfc90d:mfc90d.dll
 0001:0002631c       ??0CSingleDocTemplate@@QAE@IPAUCRuntimeClass@@00@Z 0042731c f   mfc90d:mfc90d.dll
 0001:00026322       ?LoadStdProfileSettings@CWinApp@@IAEXI@Z 00427322 f   mfc90d:mfc90d.dll
 0001:00026328       ?AfxEnableControlContainer@@YAXPAVCOccManager@@@Z 00427328 f   mfc90d:mfc90d.dll
 0001:0002632e       ?ExitInstance@CWinApp@@UAEHXZ 0042732e f   mfc90d:mfc90d.dll
 0001:00026334       ??1CSliderCtrl@@UAE@XZ     00427334 f   mfc90d:mfc90d.dll
 0001:0002633a       ?ShowWindow@CWnd@@QAEHH@Z  0042733a f   mfc90d:mfc90d.dll
 0001:00026340       ??0CSliderCtrl@@QAE@XZ     00427340 f   mfc90d:mfc90d.dll
 0001:00026346       ?GetRuntimeClass@CDialog@@UBEPAUCRuntimeClass@@XZ 00427346 f   mfc90d:mfc90d.dll
 0001:0002634c       ?DDX_Check@@YGXPAVCDataExchange@@HAAH@Z 0042734c f   mfc90d:mfc90d.dll
 0001:00026352       ?DDX_Slider@@YGXPAVCDataExchange@@HAAH@Z 00427352 f   mfc90d:mfc90d.dll
 0001:00026358       ?DDV_MinMaxInt@@YGXPAVCDataExchange@@HHH@Z 00427358 f   mfc90d:mfc90d.dll
 0001:0002635e       ?DDX_Text@@YGXPAVCDataExchange@@HAAH@Z 0042735e f   mfc90d:mfc90d.dll
 0001:00026364       ?OnTimer@CWnd@@IAEXI@Z     00427364 f   mfc90d:mfc90d.dll
 0001:0002636a       ?AfxMessageBox@@YGHPBDII@Z 0042736a f   mfc90d:mfc90d.dll
 0001:00026370       ?UpdateData@CWnd@@QAEHH@Z  00427370 f   mfc90d:mfc90d.dll
 0001:00026376       ??1CStatic@@UAE@XZ         00427376 f   mfc90d:mfc90d.dll
 0001:0002637c       ??1CBitmap@@UAE@XZ         0042737c f   mfc90d:mfc90d.dll
 0001:00026382       ??_U@YAPAXI@Z              00427382 f   mfc90d:mfc90d.dll
 0001:00026388       ??0CStatic@@QAE@XZ         00427388 f   mfc90d:mfc90d.dll
 0001:0002638e       ??0CBitmap@@QAE@XZ         0042738e f   mfc90d:mfc90d.dll
 0001:00026394       ?DDX_Control@@YGXPAVCDataExchange@@HAAVCWnd@@@Z 00427394 f   mfc90d:mfc90d.dll
 0001:0002639a       ??_V@YAXPAX@Z              0042739a f   mfc90d:mfc90d.dll
 0001:000263a0       ?DeleteObject@CGdiObject@@QAEHXZ 004273a0 f   mfc90d:mfc90d.dll
 0001:000263a6       ??1CClientDC@@UAE@XZ       004273a6 f   mfc90d:mfc90d.dll
 0001:000263ac       ?GetObjectA@CGdiObject@@QBEHHPAX@Z 004273ac f   mfc90d:mfc90d.dll
 0001:000263b2       ?CreateCompatibleBitmap@CBitmap@@QAEHPAVCDC@@HH@Z 004273b2 f   mfc90d:mfc90d.dll
 0001:000263b8       ??0CClientDC@@QAE@PAVCWnd@@@Z 004273b8 f   mfc90d:mfc90d.dll
 0001:000263be       ?MoveWindow@CWnd@@QAEXHHHHH@Z 004273be f   mfc90d:mfc90d.dll
 0001:000263c4       ??1CDC@@UAE@XZ             004273c4 f   mfc90d:mfc90d.dll
 0001:000263ca       ??1CPen@@UAE@XZ            004273ca f   mfc90d:mfc90d.dll
 0001:000263d0       ?LineTo@CDC@@QAEHHH@Z      004273d0 f   mfc90d:mfc90d.dll
 0001:000263d6       ?MoveTo@CDC@@QAE?AVCPoint@@HH@Z 004273d6 f   mfc90d:mfc90d.dll
 0001:000263dc       ?SelectObject@CDC@@QAEPAVCPen@@PAV2@@Z 004273dc f   mfc90d:mfc90d.dll
 0001:000263e2       ??0CPen@@QAE@HHK@Z         004273e2 f   mfc90d:mfc90d.dll
 0001:000263e8       ?StretchBlt@CDC@@QAEHHHHHPAV1@HHHHK@Z 004273e8 f   mfc90d:mfc90d.dll
 0001:000263ee       ?SetViewportExt@CDC@@UAE?AVCSize@@HH@Z 004273ee f   mfc90d:mfc90d.dll
 0001:000263f4       ?SetViewportOrg@CDC@@UAE?AVCPoint@@HH@Z 004273f4 f   mfc90d:mfc90d.dll
 0001:000263fa       ?SetMapMode@CDC@@UAEHH@Z   004273fa f   mfc90d:mfc90d.dll
 0001:00026400       ?SelectObject@CDC@@QAEPAVCBitmap@@PAV2@@Z 00427400 f   mfc90d:mfc90d.dll
 0001:00026406       ?GetBitmap@CBitmap@@QAEHPAUtagBITMAP@@@Z 00427406 f   mfc90d:mfc90d.dll
 0001:0002640c       ?CreateCompatibleDC@CDC@@QAEHPAV1@@Z 0042740c f   mfc90d:mfc90d.dll
 0001:00026412       ??0CDC@@QAE@XZ             00427412 f   mfc90d:mfc90d.dll
 0001:00026418       ?SetBitmapBits@CBitmap@@QAEKKPBX@Z 00427418 f   mfc90d:mfc90d.dll
 0001:0002641e       ?Format@?$CStringT@DV?$StrTraitMFC_DLL@DV?$ChTraitsCRT@D@ATL@@@@@ATL@@QAAXPBDZZ 0042741e f   mfc90d:mfc90d.dll
 0001:00026424       ??4?$CStringT@DV?$StrTraitMFC_DLL@DV?$ChTraitsCRT@D@ATL@@@@@ATL@@QAEAAV01@ABV01@@Z 00427424 f   mfc90d:mfc90d.dll
 0001:0002642a       ??4?$CStringT@DV?$StrTraitMFC_DLL@DV?$ChTraitsCRT@D@ATL@@@@@ATL@@QAEAAV01@PBD@Z 0042742a f   mfc90d:mfc90d.dll
 0001:00026430       ?SetWindowTextA@CWnd@@QAEXPBD@Z 00427430 f   mfc90d:mfc90d.dll
 0001:00026436       ?AppendFormat@?$CStringT@DV?$StrTraitMFC_DLL@DV?$ChTraitsCRT@D@ATL@@@@@ATL@@QAAXPBDZZ 00427436 f   mfc90d:mfc90d.dll
 0001:0002643c       ??0?$CStringT@DV?$StrTraitMFC_DLL@DV?$ChTraitsCRT@D@ATL@@@@@ATL@@QAE@ABV01@@Z 0042743c f   mfc90d:mfc90d.dll
 0001:00026442       ?Concatenate@?$CSimpleStringT@D$00@ATL@@KAXAAV12@PBDH1H@Z 00427442 f   mfc90d:mfc90d.dll
 0001:00026448       ?GetLength@?$CSimpleStringT@D$00@ATL@@QBEHXZ 00427448 f   mfc90d:mfc90d.dll
 0001:0002644e       ??0?$CStringT@DV?$StrTraitMFC_DLL@DV?$ChTraitsCRT@D@ATL@@@@@ATL@@QAE@PAUIAtlStringMgr@1@@Z 0042744e f   mfc90d:mfc90d.dll
 0001:00026454       ?GetManager@?$CStringT@DV?$StrTraitMFC_DLL@DV?$ChTraitsCRT@D@ATL@@@@@ATL@@QBEPAUIAtlStringMgr@2@XZ 00427454 f   mfc90d:mfc90d.dll
 0001:0002645a       ??1CButton@@UAE@XZ         0042745a f   mfc90d:mfc90d.dll
 0001:00026460       ?Append@?$CSimpleStringT@D$00@ATL@@QAEXPBD@Z 00427460 f   mfc90d:mfc90d.dll
 0001:00026466       ?ReleaseBuffer@?$CSimpleStringT@D$00@ATL@@QAEXH@Z 00427466 f   mfc90d:mfc90d.dll
 0001:0002646c       ?GetBufferSetLength@?$CSimpleStringT@D$00@ATL@@QAEPADH@Z 0042746c f   mfc90d:mfc90d.dll
 0001:00026472       ?AfxAssertFailedLine@@YGHPBDH@Z 00427472 f   mfc90d:mfc90d.dll
 0001:00026478       ?LoadBitmapA@CBitmap@@QAEHI@Z 00427478 f   mfc90d:mfc90d.dll
 0001:0002647e       ??0?$CStringT@DV?$StrTraitMFC_DLL@DV?$ChTraitsCRT@D@ATL@@@@@ATL@@QAE@PBD@Z 0042747e f   mfc90d:mfc90d.dll
 0001:00026484       ??0CButton@@QAE@XZ         00427484 f   mfc90d:mfc90d.dll
 0001:0002648a       ?DDX_Text@@YGXPAVCDataExchange@@HAAV?$CStringT@DV?$StrTraitMFC_DLL@DV?$ChTraitsCRT@D@ATL@@@@@ATL@@@Z 0042748a f   mfc90d:mfc90d.dll
 0001:00026490       ?DDX_Radio@@YGXPAVCDataExchange@@HAAH@Z 00427490 f   mfc90d:mfc90d.dll
 0001:00026496       ?DDV_MinMaxDouble@@YGXPAVCDataExchange@@ABNNN@Z 00427496 f   mfc90d:mfc90d.dll
 0001:0002649c       ?DDX_Text@@YGXPAVCDataExchange@@HAAN@Z 0042749c f   mfc90d:mfc90d.dll
 0001:000264a2       ?DDV_MinMaxLong@@YGXPAVCDataExchange@@JJJ@Z 004274a2 f   mfc90d:mfc90d.dll
 0001:000264a8       ?DDX_Text@@YGXPAVCDataExchange@@HAAK@Z 004274a8 f   mfc90d:mfc90d.dll
 0001:000264ae       ?CheckDlgButton@CWnd@@QAEXHI@Z 004274ae f   mfc90d:mfc90d.dll
 0001:000264b4       ?EnableWindow@CWnd@@QAEHH@Z 004274b4 f   mfc90d:mfc90d.dll
 0001:000264ba       ?GetDlgItem@CWnd@@QBEPAV1@H@Z 004274ba f   mfc90d:mfc90d.dll
 0001:000264c0       ?SetTimer@CWnd@@QAEIIIP6GXPAUHWND__@@IIK@Z@Z 004274c0 f   mfc90d:mfc90d.dll
 0001:000264c6       ?KillTimer@CWnd@@QAEHI@Z   004274c6 f   mfc90d:mfc90d.dll
 0001:000264cc       ?SetBitmap@CStatic@@QAEPAUHBITMAP__@@PAU2@@Z 004274cc f   mfc90d:mfc90d.dll
 0001:000264d2       ??BCBitmap@@QBEPAUHBITMAP__@@XZ 004274d2 f   mfc90d:mfc90d.dll
 0001:000264d8       ??1CFileDialog@@UAE@XZ     004274d8 f   mfc90d:mfc90d.dll
 0001:000264de       ?Left@?$CStringT@DV?$StrTraitMFC_DLL@DV?$ChTraitsCRT@D@ATL@@@@@ATL@@QBE?AV12@H@Z 004274de f   mfc90d:mfc90d.dll
 0001:000264e4       ?Find@?$CStringT@DV?$StrTraitMFC_DLL@DV?$ChTraitsCRT@D@ATL@@@@@ATL@@QBEHPBDH@Z 004274e4 f   mfc90d:mfc90d.dll
 0001:000264ea       ?GetPathName@CFileDialog@@QBE?AV?$CStringT@DV?$StrTraitMFC_DLL@DV?$ChTraitsCRT@D@ATL@@@@@ATL@@XZ 004274ea f   mfc90d:mfc90d.dll
 0001:000264f0       ?DoModal@CFileDialog@@UAEHXZ 004274f0 f   mfc90d:mfc90d.dll
 0001:000264f6       ??0CFileDialog@@QAE@HPBD0K0PAVCWnd@@KH@Z 004274f6 f   mfc90d:mfc90d.dll
 0001:000264fc       ?IsWindowVisible@CWnd@@QBEHXZ 004274fc f   mfc90d:mfc90d.dll
 0001:00026502       ?GetCheck@CButton@@QBEHXZ  00427502 f   mfc90d:mfc90d.dll
 0001:00026508       ?StringLength@?$CSimpleStringT@D$00@ATL@@SAHPBD@Z 00427508 f   mfc90d:mfc90d.dll
 0001:0002650e       ?GetThisClass@CDocument@@SGPAUCRuntimeClass@@XZ 0042750e f   mfc90d:mfc90d.dll
 0001:00026514       ??0CDocument@@QAE@XZ       00427514 f   mfc90d:mfc90d.dll
 0001:0002651a       ?AssertValid@CDocument@@UBEXXZ 0042751a f   mfc90d:mfc90d.dll
 0001:00026520       ?Dump@CDocument@@UBEXAAVCDumpContext@@@Z 00427520 f   mfc90d:mfc90d.dll
 0001:00026526       ?OnCmdMsg@CDocument@@UAEHIHPAXPAUAFX_CMDHANDLERINFO@@@Z 00427526 f   mfc90d:mfc90d.dll
 0001:0002652c       ?OnFinalRelease@CDocument@@UAEXXZ 0042752c f   mfc90d:mfc90d.dll
 0001:00026532       ?GetMessageMap@CDocument@@MBEPBUAFX_MSGMAP@@XZ 00427532 f   mfc90d:mfc90d.dll
 0001:00026538       ?SetTitle@CDocument@@UAEXPBD@Z 00427538 f   mfc90d:mfc90d.dll
 0001:0002653e       ?SetPathName@CDocument@@UAEXPBDH@Z 0042753e f   mfc90d:mfc90d.dll
 0001:00026544       ?IsModified@CDocument@@UAEHXZ 00427544 f   mfc90d:mfc90d.dll
 0001:0002654a       ?SetModifiedFlag@CDocument@@UAEXH@Z 0042754a f   mfc90d:mfc90d.dll
 0001:00026550       ?GetFirstViewPosition@CDocument@@UBEPAU__POSITION@@XZ 00427550 f   mfc90d:mfc90d.dll
 0001:00026556       ?GetNextView@CDocument@@UBEPAVCView@@AAPAU__POSITION@@@Z 00427556 f   mfc90d:mfc90d.dll
 0001:0002655c       ?OnChangedViewList@CDocument@@UAEXXZ 0042755c f   mfc90d:mfc90d.dll
 0001:00026562       ?DeleteContents@CDocument@@UAEXXZ 00427562 f   mfc90d:mfc90d.dll
 0001:00026568       ?OnOpenDocument@CDocument@@UAEHPBD@Z 00427568 f   mfc90d:mfc90d.dll
 0001:0002656e       ?OnSaveDocument@CDocument@@UAEHPBD@Z 0042756e f   mfc90d:mfc90d.dll
 0001:00026574       ?OnCloseDocument@CDocument@@UAEXXZ 00427574 f   mfc90d:mfc90d.dll
 0001:0002657a       ?ReportSaveLoadException@CDocument@@UAEXPBDPAVCException@@HI@Z 0042757a f   mfc90d:mfc90d.dll
 0001:00026580       ?GetFile@CDocument@@UAEPAVCFile@@PBDIPAVCFileException@@@Z 00427580 f   mfc90d:mfc90d.dll
 0001:00026586       ?ReleaseFile@CDocument@@UAEXPAVCFile@@H@Z 00427586 f   mfc90d:mfc90d.dll
 0001:0002658c       ?CanCloseFrame@CDocument@@UAEHPAVCFrameWnd@@@Z 0042758c f   mfc90d:mfc90d.dll
 0001:00026592       ?SaveModified@CDocument@@UAEHXZ 00427592 f   mfc90d:mfc90d.dll
 0001:00026598       ?PreCloseFrame@CDocument@@UAEXPAVCFrameWnd@@@Z 00427598 f   mfc90d:mfc90d.dll
 0001:0002659e       ?DoSave@CDocument@@UAEHPBDH@Z 0042759e f   mfc90d:mfc90d.dll
 0001:000265a4       ?DoFileSave@CDocument@@UAEHXZ 004275a4 f   mfc90d:mfc90d.dll
 0001:000265aa       ?UpdateFrameCounts@CDocument@@UAEXXZ 004275aa f   mfc90d:mfc90d.dll
 0001:000265b0       ?GetDefaultMenu@CDocument@@UAEPAUHMENU__@@XZ 004275b0 f   mfc90d:mfc90d.dll
 0001:000265b6       ?GetDefaultAccelerator@CDocument@@UAEPAUHACCEL__@@XZ 004275b6 f   mfc90d:mfc90d.dll
 0001:000265bc       ?OnIdle@CDocument@@UAEXXZ  004275bc f   mfc90d:mfc90d.dll
 0001:000265c2       ??1CDocument@@UAE@XZ       004275c2 f   mfc90d:mfc90d.dll
 0001:000265c8       ?SetWindowPos@CWnd@@QAEHPBV1@HHHHI@Z 004275c8 f   mfc90d:mfc90d.dll
 0001:000265ce       ??1CEdit@@UAE@XZ           004275ce f   mfc90d:mfc90d.dll
 0001:000265d4       ?SetDlgItemInt@CWnd@@QAEXHIH@Z 004275d4 f   mfc90d:mfc90d.dll
 0001:000265da       ?SetTicFreq@CSliderCtrl@@QAEXH@Z 004275da f   mfc90d:mfc90d.dll
 0001:000265e0       ?SetPos@CSliderCtrl@@QAEXH@Z 004275e0 f   mfc90d:mfc90d.dll
 0001:000265e6       ?SetRange@CSliderCtrl@@QAEXHHH@Z 004275e6 f   mfc90d:mfc90d.dll
 0001:000265ec       ??0CEdit@@QAE@XZ           004275ec f   mfc90d:mfc90d.dll
 0001:000265f2       ?GetPos@CSliderCtrl@@QBEHXZ 004275f2 f   mfc90d:mfc90d.dll
 0001:000265f8       ?InvokeHelper@CWnd@@QAAXJGGPAXPBEZZ 004275f8 f   mfc90d:mfc90d.dll
 0001:000265fe       ?SetProperty@CWnd@@QAAXJGZZ 004275fe f   mfc90d:mfc90d.dll
 0001:00026604       ?Append@?$CSimpleStringT@D$00@ATL@@QAEXABV12@@Z 00427604 f   mfc90d:mfc90d.dll
 0001:0002660a       ?DDV_MinMaxUInt@@YGXPAVCDataExchange@@III@Z 0042760a f   mfc90d:mfc90d.dll
 0001:00026610       ?DDX_Text@@YGXPAVCDataExchange@@HAAI@Z 00427610 f   mfc90d:mfc90d.dll
 0001:00026616       ?DDX_Text@@YGXPAVCDataExchange@@HAAM@Z 00427616 f   mfc90d:mfc90d.dll
 0001:0002661c       ??2@YAPAXI@Z               0042761c f   mfc90d:mfc90d.dll
 0001:00026622       ?GetBuffer@?$CSimpleStringT@D$00@ATL@@QAEPADXZ 00427622 f   mfc90d:mfc90d.dll
 0001:00026628       ?Compare@?$CStringT@DV?$StrTraitMFC_DLL@DV?$ChTraitsCRT@D@ATL@@@@@ATL@@QBEHPBD@Z 00427628 f   mfc90d:mfc90d.dll
 0001:0002662e       ??A?$CSimpleStringT@D$00@ATL@@QBEDH@Z 0042762e f   mfc90d:mfc90d.dll
 0001:00026634       ??1CListBox@@UAE@XZ        00427634 f   mfc90d:mfc90d.dll
 0001:0002663a       ??0CListBox@@QAE@XZ        0042763a f   mfc90d:mfc90d.dll
 0001:00026640       ?DDX_LBIndex@@YGXPAVCDataExchange@@HAAH@Z 00427640 f   mfc90d:mfc90d.dll
 0001:00026646       ??1CFile@@UAE@XZ           00427646 f   mfc90d:mfc90d.dll
 0001:0002664c       ?Close@CStdioFile@@UAEXXZ  0042764c f   mfc90d:mfc90d.dll
 0001:00026652       ?AddString@CListBox@@QAEHPBD@Z 00427652 f   mfc90d:mfc90d.dll
 0001:00026658       ??1CStdioFile@@UAE@XZ      00427658 f   mfc90d:mfc90d.dll
 0001:0002665e       ?InsertString@CListBox@@QAEHHPBD@Z 0042765e f   mfc90d:mfc90d.dll
 0001:00026664       ?Right@?$CStringT@DV?$StrTraitMFC_DLL@DV?$ChTraitsCRT@D@ATL@@@@@ATL@@QBE?AV12@H@Z 00427664 f   mfc90d:mfc90d.dll
 0001:0002666a       ?Trim@?$CStringT@DV?$StrTraitMFC_DLL@DV?$ChTraitsCRT@D@ATL@@@@@ATL@@QAEAAV12@XZ 0042766a f   mfc90d:mfc90d.dll
 0001:00026670       ?ReadString@CStdioFile@@UAEHAAV?$CStringT@DV?$StrTraitMFC_DLL@DV?$ChTraitsCRT@D@ATL@@@@@ATL@@@Z 00427670 f   mfc90d:mfc90d.dll
 0001:00026676       ?GetCount@CListBox@@QBEHXZ 00427676 f   mfc90d:mfc90d.dll
 0001:0002667c       ??0CStdioFile@@QAE@PBDI@Z  0042767c f   mfc90d:mfc90d.dll
 0001:00026682       ?ResetContent@CListBox@@QAEXXZ 00427682 f   mfc90d:mfc90d.dll
 0001:00026688       ??0CFile@@QAE@XZ           00427688 f   mfc90d:mfc90d.dll
 0001:0002668e       ?MakeLower@?$CStringT@DV?$StrTraitMFC_DLL@DV?$ChTraitsCRT@D@ATL@@@@@ATL@@QAEAAV12@XZ 0042768e f   mfc90d:mfc90d.dll
 0001:00026694       ?GetText@CListBox@@QBEXHAAV?$CStringT@DV?$StrTraitMFC_DLL@DV?$ChTraitsCRT@D@ATL@@@@@ATL@@@Z 00427694 f   mfc90d:mfc90d.dll
 0001:0002669a       ?GetThisClass@CFormView@@SGPAUCRuntimeClass@@XZ 0042769a f   mfc90d:mfc90d.dll
 0001:000266a0       ?GetThisMessageMap@CFormView@@KGPBUAFX_MSGMAP@@XZ 004276a0 f   mfc90d:mfc90d.dll
 0001:000266a6       ??0CFormView@@IAE@I@Z      004276a6 f   mfc90d:mfc90d.dll
 0001:000266ac       ?AssertValid@CFormView@@UBEXXZ 004276ac f   mfc90d:mfc90d.dll
 0001:000266b2       ?Dump@CFormView@@UBEXAAVCDumpContext@@@Z 004276b2 f   mfc90d:mfc90d.dll
 0001:000266b8       ?OnCmdMsg@CView@@UAEHIHPAXPAUAFX_CMDHANDLERINFO@@@Z 004276b8 f   mfc90d:mfc90d.dll
 0001:000266be       ?Create@CFormView@@MAEHPBD0KABUtagRECT@@PAVCWnd@@IPAUCCreateContext@@@Z 004276be f   mfc90d:mfc90d.dll
 0001:000266c4       ?PreCreateWindow@CView@@MAEHAAUtagCREATESTRUCTA@@@Z 004276c4 f   mfc90d:mfc90d.dll
 0001:000266ca       ?CalcWindowRect@CScrollView@@UAEXPAUtagRECT@@I@Z 004276ca f   mfc90d:mfc90d.dll
 0001:000266d0       ?GetScrollBarCtrl@CView@@UBEPAVCScrollBar@@H@Z 004276d0 f   mfc90d:mfc90d.dll
 0001:000266d6       ?PreTranslateMessage@CFormView@@MAEHPAUtagMSG@@@Z 004276d6 f   mfc90d:mfc90d.dll
 0001:000266dc       ?PostNcDestroy@CView@@MAEXXZ 004276dc f   mfc90d:mfc90d.dll
 0001:000266e2       ?SetOccDialogInfo@CFormView@@MAEHPAU_AFX_OCC_DIALOG_INFO@@@Z 004276e2 f   mfc90d:mfc90d.dll
 0001:000266e8       ?GetOccDialogInfo@CFormView@@MAEPAU_AFX_OCC_DIALOG_INFO@@XZ 004276e8 f   mfc90d:mfc90d.dll
 0001:000266ee       ?IsSelected@CView@@UBEHPBVCObject@@@Z 004276ee f   mfc90d:mfc90d.dll
 0001:000266f4       ?OnScroll@CScrollView@@UAEHIIH@Z 004276f4 f   mfc90d:mfc90d.dll
 0001:000266fa       ?OnScrollBy@CScrollView@@UAEHVCSize@@H@Z 004276fa f   mfc90d:mfc90d.dll
 0001:00026700       ?OnDragEnter@CView@@UAEKPAVCOleDataObject@@KVCPoint@@@Z 00427700 f   mfc90d:mfc90d.dll
 0001:00026706       ?OnDragOver@CView@@UAEKPAVCOleDataObject@@KVCPoint@@@Z 00427706 f   mfc90d:mfc90d.dll
 0001:0002670c       ?OnDragLeave@CView@@UAEXXZ 0042770c f   mfc90d:mfc90d.dll
 0001:00026712       ?OnDrop@CView@@UAEHPAVCOleDataObject@@KVCPoint@@@Z 00427712 f   mfc90d:mfc90d.dll
 0001:00026718       ?OnDropEx@CView@@UAEKPAVCOleDataObject@@KKVCPoint@@@Z 00427718 f   mfc90d:mfc90d.dll
 0001:0002671e       ?OnDragScroll@CView@@UAEKKVCPoint@@@Z 0042771e f   mfc90d:mfc90d.dll
 0001:00026724       ?OnPrepareDC@CScrollView@@UAEXPAVCDC@@PAUCPrintInfo@@@Z 00427724 f   mfc90d:mfc90d.dll
 0001:0002672a       ?OnActivateView@CFormView@@MAEXHPAVCView@@0@Z 0042772a f   mfc90d:mfc90d.dll
 0001:00026730       ?OnActivateFrame@CFormView@@MAEXIPAVCFrameWnd@@@Z 00427730 f   mfc90d:mfc90d.dll
 0001:00026736       ?OnUpdate@CView@@MAEXPAV1@JPAVCObject@@@Z 00427736 f   mfc90d:mfc90d.dll
 0001:0002673c       ?OnDraw@CFormView@@MAEXPAVCDC@@@Z 0042773c f   mfc90d:mfc90d.dll
 0001:00026742       ?OnPreparePrinting@CView@@MAEHPAUCPrintInfo@@@Z 00427742 f   mfc90d:mfc90d.dll
 0001:00026748       ?OnBeginPrinting@CView@@MAEXPAVCDC@@PAUCPrintInfo@@@Z 00427748 f   mfc90d:mfc90d.dll
 0001:0002674e       ?OnPrint@CView@@MAEXPAVCDC@@PAUCPrintInfo@@@Z 0042774e f   mfc90d:mfc90d.dll
 0001:00026754       ?OnEndPrinting@CView@@MAEXPAVCDC@@PAUCPrintInfo@@@Z 00427754 f   mfc90d:mfc90d.dll
 0001:0002675a       ?OnEndPrintPreview@CView@@MAEXPAVCDC@@PAUCPrintInfo@@UtagPOINT@@PAVCPreviewView@@@Z 0042775a f   mfc90d:mfc90d.dll
 0001:00026760       ?GetWheelScrollDistance@CScrollView@@UAE?AVCSize@@V2@HH@Z 00427760 f   mfc90d:mfc90d.dll
 0001:00026766       ?GetAccessibleChild@CWnd@@QAEJUtagVARIANT@@PAPAUIDispatch@@@Z 00427766 f   mfc90d:mfc90d.dll
 0001:0002676c       ?GetAccessibleChildCount@CWnd@@QAEJXZ 0042776c f   mfc90d:mfc90d.dll
 0001:00026772       ?GetAccessibleName@CWnd@@QAEJUtagVARIANT@@PAPA_W@Z 00427772 f   mfc90d:mfc90d.dll
 0001:00026778       ?GetAccessibilityLocation@CWnd@@QAEJUtagVARIANT@@PAJ111@Z 00427778 f   mfc90d:mfc90d.dll
 0001:0002677e       ?GetAccessibilityHitTest@CWnd@@QAEJJJPAUtagVARIANT@@@Z 0042777e f   mfc90d:mfc90d.dll
 0001:00026784       ?OnInitialUpdate@CFormView@@UAEXXZ 00427784 f   mfc90d:mfc90d.dll
 0001:0002678a       ??1CFormView@@UAE@XZ       0042778a f   mfc90d:mfc90d.dll
 0001:00026790       ??_Estringdispid@CComTypeInfoHolder@ATL@@QAEPAXI@Z 00427790 f i mfcs90d:nolib.obj
 0001:00026800       ??1stringdispid@CComTypeInfoHolder@ATL@@QAE@XZ 00427800 f i mfcs90d:nolib.obj
 0001:00026820       ??1CComBSTR@ATL@@QAE@XZ    00427820 f i mfcs90d:nolib.obj
 0001:0002683a       ___CxxFrameHandler3        0042783a f   msvcrtd:MSVCR90D.dll
 0001:00026840       @__security_check_cookie@4 00427840 f   msvcrtd:secchk.obj
 0001:00026850       ??0type_info@@AAE@ABV0@@Z  00427850 f   msvcrtd:ti_inst.obj
 0001:00026870       ??_Etype_info@@UAEPAXI@Z   00427870 f i msvcrtd:ti_inst.obj
 0001:000268e0       ??4type_info@@AAEAAV0@ABV0@@Z 004278e0 f   msvcrtd:ti_inst.obj
 0001:000268f2       _strlen                    004278f2 f   msvcrtd:MSVCR90D.dll
 0001:00026900       __onexit                   00427900 f   msvcrtd:atonexit.obj
 0001:00026a10       _atexit                    00427a10 f   msvcrtd:atonexit.obj
 0001:00026a30       __ftol2_sse                00427a30 f   msvcrtd:ftol2.obj
 0001:00026a39       __ftol2_pentium4           00427a39 f   msvcrtd:ftol2.obj
 0001:00026a4c       __ftol2_sse_excpt          00427a4c f   msvcrtd:ftol2.obj
 0001:00026a66       __ftol2                    00427a66 f   msvcrtd:ftol2.obj
 0001:00026adc       _fclose                    00427adc f   msvcrtd:MSVCR90D.dll
 0001:00026ae2       _exp                       00427ae2 f   msvcrtd:MSVCR90D.dll
 0001:00026ae8       _srand                     00427ae8 f   msvcrtd:MSVCR90D.dll
 0001:00026aee       __getpid                   00427aee f   msvcrtd:MSVCR90D.dll
 0001:00026af4       _cos                       00427af4 f   msvcrtd:MSVCR90D.dll
 0001:00026afa       _sqrt                      00427afa f   msvcrtd:MSVCR90D.dll
 0001:00026b00       _log                       00427b00 f   msvcrtd:MSVCR90D.dll
 0001:00026b06       _rand                      00427b06 f   msvcrtd:MSVCR90D.dll
 0001:00026b0c       _fopen                     00427b0c f   msvcrtd:MSVCR90D.dll
 0001:00026b12       _fwrite                    00427b12 f   msvcrtd:MSVCR90D.dll
 0001:00026b18       _fflush                    00427b18 f   msvcrtd:MSVCR90D.dll
 0001:00026b1e       _fprintf                   00427b1e f   msvcrtd:MSVCR90D.dll
 0001:00026b24       _pow                       00427b24 f   msvcrtd:MSVCR90D.dll
 0001:00026b2a       _strftime                  00427b2a f   msvcrtd:MSVCR90D.dll
 0001:00026b30       __localtime64_s            00427b30 f   msvcrtd:MSVCR90D.dll
 0001:00026b36       _atof                      00427b36 f   msvcrtd:MSVCR90D.dll
 0001:00026b3c       _atol                      00427b3c f   msvcrtd:MSVCR90D.dll
 0001:00026b42       _sprintf                   00427b42 f   msvcrtd:MSVCR90D.dll
 0001:00026b48       _sscanf                    00427b48 f   msvcrtd:MSVCR90D.dll
 0001:00026b4e       _memset                    00427b4e f   msvcrtd:MSVCR90D.dll
 0001:00026c60       _WinMainCRTStartup         00427c60 f   msvcrtd:crtexew.obj
 0001:00026fb0       _NtCurrentTeb              00427fb0 f i msvcrtd:crtexew.obj
 0001:00027070       _free                      00428070 f   msvcrtd:MSVCR90D.dll
 0001:00027076       __finite                   00428076 f   msvcrtd:MSVCR90D.dll
 0001:0002707c       _malloc                    0042807c f   msvcrtd:MSVCR90D.dll
 0001:00027082       ___iob_func                00428082 f   msvcrtd:MSVCR90D.dll
 0001:00027088       _exit                      00428088 f   msvcrtd:MSVCR90D.dll
 0001:0002708e       __CIlog10                  0042808e f   msvcrtd:MSVCR90D.dll
 0001:00027094       __CIsqrt                   00428094 f   msvcrtd:MSVCR90D.dll
 0001:0002709a       _memcpy                    0042809a f   msvcrtd:MSVCR90D.dll
 0001:000270a0       ??_M@YGXPAXIHP6EX0@Z@Z     004280a0 f   msvcrtd:ehvecdtr.obj
 0001:00027150       ?__ArrayUnwind@@YGXPAXIHP6EX0@Z@Z 00428150 f   msvcrtd:ehvecdtr.obj
 0001:00027210       ___report_gsfailure        00428210 f   msvcrtd:gs_report.obj
 0001:0002731e       __unlock                   0042831e f   msvcrtd:MSVCR90D.dll
 0001:00027324       ___dllonexit               00428324 f   msvcrtd:MSVCR90D.dll
 0001:0002732a       __encode_pointer           0042832a f   msvcrtd:MSVCR90D.dll
 0001:00027330       __lock                     00428330 f   msvcrtd:MSVCR90D.dll
 0001:00027336       __decode_pointer           00428336 f   msvcrtd:MSVCR90D.dll
 0001:00027340       __except_handler4          00428340 f   msvcrtd:chandler4gs.obj
 0001:00027370       __get_sse2_info            00428370 f   msvcrtd:cpu_disp.obj
 0001:000274a0       ___sse2_available_init     004284a0 f   msvcrtd:cpu_disp.obj
 0001:000274c0       ?__CxxUnhandledExceptionFilter@@YGJPAU_EXCEPTION_POINTERS@@@Z 004284c0 f   msvcrtd:unhandld.obj
 0001:00027530       ___CxxSetUnhandledExceptionFilter 00428530 f   msvcrtd:unhandld.obj
 0001:00027544       __configthreadlocale       00428544 f   msvcrtd:MSVCR90D.dll
 0001:00027550       __setdefaultprecision      00428550 f   msvcrtd:fp8.obj
 0001:00027590       __invoke_watson_if_error   00428590 f i msvcrtd:fp8.obj
 0001:000275bc       ___setusermatherr          004285bc f   msvcrtd:MSVCR90D.dll
 0001:000275d0       __matherr                  004285d0 f   msvcrtd:merr.obj
 0001:000275e0       __setargv                  004285e0 f   msvcrtd:dllargv.obj
 0001:000275f0       __RTC_Initialize           004285f0 f   msvcrtd:_initsect_.obj
 0001:00027620       __RTC_Terminate            00428620 f   msvcrtd:_initsect_.obj
 0001:00027646       ___p__commode              00428646 f   msvcrtd:MSVCR90D.dll
 0001:0002764c       ___p__fmode                0042864c f   msvcrtd:MSVCR90D.dll
 0001:00027652       ___set_app_type            00428652 f   msvcrtd:MSVCR90D.dll
 0001:00027658       __amsg_exit                00428658 f   msvcrtd:MSVCR90D.dll
 0001:0002765e       ___getmainargs             0042865e f   msvcrtd:MSVCR90D.dll
 0001:00027670       ___security_init_cookie    00428670 f   msvcrtd:gs_support.obj
 0001:0002774c       __exit                     0042874c f   msvcrtd:MSVCR90D.dll
 0001:00027752       __XcptFilter               00428752 f   msvcrtd:MSVCR90D.dll
 0001:00027758       __cexit                    00428758 f   msvcrtd:MSVCR90D.dll
 0001:0002775e       __ismbblead                0042875e f   msvcrtd:MSVCR90D.dll
 0001:00027764       __CrtSetCheckCount         00428764 f   msvcrtd:MSVCR90D.dll
 0001:00027770       __ValidateImageBase        00428770 f   msvcrtd:pesect.obj
 0001:000277d0       __FindPESection            004287d0 f   msvcrtd:pesect.obj
 0001:00027850       __IsNonwritableInCurrentImage 00428850 f   msvcrtd:pesect.obj
 0001:00027962       __CrtDbgReportW            00428962 f   msvcrtd:MSVCR90D.dll
 0001:00027968       __initterm                 00428968 f   msvcrtd:MSVCR90D.dll
 0001:0002796e       __initterm_e               0042896e f   msvcrtd:MSVCR90D.dll
 0001:00027974       ?terminate@@YAXXZ          00428974 f   msvcrtd:MSVCR90D.dll
 0001:0002797a       __crt_debugger_hook        0042897a f   msvcrtd:MSVCR90D.dll
 0001:00027980       ??1type_info@@UAE@XZ       00428980 f   msvcrtd:MSVCR90D.dll
 0001:00027980       ?_type_info_dtor_internal_method@type_info@@QAEXXZ 00428980 f   msvcrtd:MSVCR90D.dll
 0001:00027986       __except_handler4_common   00428986 f   msvcrtd:MSVCR90D.dll
 0001:0002798c       __controlfp_s              0042898c f   msvcrtd:MSVCR90D.dll
 0001:00027992       __invoke_watson            00428992 f   msvcrtd:MSVCR90D.dll
 0001:00027998       _CloseHandle@4             00428998 f   kernel32:KERNEL32.dll
 0001:0002799e       _SetCommState@8            0042899e f   kernel32:KERNEL32.dll
 0001:000279a4       _SetCommTimeouts@8         004289a4 f   kernel32:KERNEL32.dll
 0001:000279aa       _GetCommState@8            004289aa f   kernel32:KERNEL32.dll
 0001:000279b0       _CreateFileA@28            004289b0 f   kernel32:KERNEL32.dll
 0001:000279b6       _GetLastError@0            004289b6 f   kernel32:KERNEL32.dll
 0001:000279bc       _WriteFile@20              004289bc f   kernel32:KERNEL32.dll
 0001:000279c2       _CreateEventA@16           004289c2 f   kernel32:KERNEL32.dll
 0001:000279c8       _GetOverlappedResult@16    004289c8 f   kernel32:KERNEL32.dll
 0001:000279ce       _ReadFile@20               004289ce f   kernel32:KERNEL32.dll
 0001:000279d4       _GetCurrentDirectoryA@8    004289d4 f   kernel32:KERNEL32.dll
 0001:000279da       _Sleep@4                   004289da f   kernel32:KERNEL32.dll
 0001:000279e0       _CreateThread@24           004289e0 f   kernel32:KERNEL32.dll
 0001:000279e6       _WaitForSingleObject@8     004289e6 f   kernel32:KERNEL32.dll
 0001:000279ec       _QueryPerformanceCounter@4 004289ec f   kernel32:KERNEL32.dll
 0001:000279f2       _QueryPerformanceFrequency@4 004289f2 f   kernel32:KERNEL32.dll
 0001:000279f8       _FreeLibrary@4             004289f8 f   kernel32:KERNEL32.dll
 0001:000279fe       _GetProcAddress@8          004289fe f   kernel32:KERNEL32.dll
 0001:00027a04       _LoadLibraryA@4            00428a04 f   kernel32:KERNEL32.dll
 0001:00027a0a       _CreateProcessA@40         00428a0a f   kernel32:KERNEL32.dll
 0001:00027a10       _InterlockedExchange@8     00428a10 f   kernel32:KERNEL32.dll
 0001:00027a16       _InterlockedCompareExchange@12 00428a16 f   kernel32:KERNEL32.dll
 0001:00027a1c       _GetStartupInfoA@4         00428a1c f   kernel32:KERNEL32.dll
 0001:00027a22       _TerminateProcess@8        00428a22 f   kernel32:KERNEL32.dll
 0001:00027a28       _GetCurrentProcess@0       00428a28 f   kernel32:KERNEL32.dll
 0001:00027a2e       _UnhandledExceptionFilter@4 00428a2e f   kernel32:KERNEL32.dll
 0001:00027a34       _SetUnhandledExceptionFilter@4 00428a34 f   kernel32:KERNEL32.dll
 0001:00027a3a       _IsDebuggerPresent@0       00428a3a f   kernel32:KERNEL32.dll
 0001:00027a40       _GetTickCount@0            00428a40 f   kernel32:KERNEL32.dll
 0001:00027a46       _GetCurrentThreadId@0      00428a46 f   kernel32:KERNEL32.dll
 0001:00027a4c       _GetCurrentProcessId@0     00428a4c f   kernel32:KERNEL32.dll
 0001:00027a52       _GetSystemTimeAsFileTime@4 00428a52 f   kernel32:KERNEL32.dll
 0001:00027a58       _InitCommonControlsEx@4    00428a58 f   comctl32:COMCTL32.dll
 0001:00027a5e       _SysFreeString@4           00428a5e f   oleaut32:OLEAUT32.dll
 0001:00027a70       ??0CAtlAllocator@@QAE@XZ   00428a70 f i atlsd:Externs.obj
 0001:00027ac0       ??0CTraceSnapshot@@QAE@XZ  00428ac0 f i atlsd:Externs.obj
 0001:00027af0       ??0?$CSimpleArray@UCModuleInfo@CTraceSnapshot@@V?$CSimpleArrayEqualHelper@UCModuleInfo@CTraceSnapshot@@@ATL@@@ATL@@QAE@XZ 00428af0 f i atlsd:Externs.obj
 0001:00027b20       ??0?$CSimpleArray@KV?$CSimpleArrayEqualHelper@K@ATL@@@ATL@@QAE@XZ 00428b20 f i atlsd:Externs.obj
 0001:00027c70       ??0CAtlException@ATL@@QAE@J@Z 00428c70 f i atlsd:Externs.obj
 0001:00027c90       ?AtlCrtErrorCheck@ATL@@YAHH@Z 00428c90 f i atlsd:Externs.obj
 0001:00027d50       ?AtlThrowImpl@ATL@@YGXJ@Z  00428d50 f i atlsd:Externs.obj
 0001:00027de0       ??RCTraceFileAndLineInfo@ATL@@QBAXKIPBDZZ 00428de0 f i atlsd:Externs.obj
 0001:00027e30       ?_AtlRaiseException@ATL@@YAXKK@Z 00428e30 f i atlsd:Externs.obj
 0001:00027e50       ??0CTrace@ATL@@AAE@P6AHHPBDH00ZZ@Z 00428e50 f i atlsd:Externs.obj
 0001:00027e90       ??1CAtlAllocator@@QAE@XZ   00428e90 f i atlsd:Externs.obj
 0001:00027eb0       ??1CTraceSnapshot@@QAE@XZ  00428eb0 f i atlsd:Externs.obj
 0001:00027ed0       ??1?$CSimpleArray@UCModuleInfo@CTraceSnapshot@@V?$CSimpleArrayEqualHelper@UCModuleInfo@CTraceSnapshot@@@ATL@@@ATL@@QAE@XZ 00428ed0 f i atlsd:Externs.obj
 0001:00027ef0       ??1?$CSimpleArray@KV?$CSimpleArrayEqualHelper@K@ATL@@@ATL@@QAE@XZ 00428ef0 f i atlsd:Externs.obj
 0001:00027f10       ?RemoveAll@?$CSimpleArray@UCModuleInfo@CTraceSnapshot@@V?$CSimpleArrayEqualHelper@UCModuleInfo@CTraceSnapshot@@@ATL@@@ATL@@QAEXXZ 00428f10 f i atlsd:Externs.obj
 0001:00027f80       ?RemoveAll@?$CSimpleArray@KV?$CSimpleArrayEqualHelper@K@ATL@@@ATL@@QAEXXZ 00428f80 f i atlsd:Externs.obj
 0001:00027ff0       ??1CTrace@ATL@@AAE@XZ      00428ff0 f i atlsd:Externs.obj
 0001:00028010       ??0CTraceCategory@ATL@@QAE@PBDI@Z 00429010 f i atlsd:atltrace.obj
 0001:00028060       ?ChangeCategory@CTrace@ATL@@QAE_NKIW4ATLTRACESTATUS@2@@Z 00429060 f i atlsd:atltrace.obj
 0001:00028090       ?RegisterCategory@CTrace@ATL@@QAEKPBD@Z 00429090 f i atlsd:atltrace.obj
 0001:000280b0       ?NotifyTool@ATL@@YGXXZ     004290b0 f   atlsd:AtlDebugAPI.obj
 0001:000280f0       _AtlTraceRegister@8        004290f0 f   atlsd:AtlDebugAPI.obj
 0001:00028170       _AtlTraceUnregister@4      00429170 f   atlsd:AtlDebugAPI.obj
 0001:000281a0       _AtlTraceRegisterCategoryA@8 004291a0 f   atlsd:AtlDebugAPI.obj
 0001:000281f0       _AtlTraceRegisterCategoryU@8 004291f0 f   atlsd:AtlDebugAPI.obj
 0001:00028240       _AtlTraceModifyProcess@20  00429240 f   atlsd:AtlDebugAPI.obj
 0001:000282e0       ?GetProcess@CAtlAllocator@@QBEPAVCAtlTraceProcess@@XZ 004292e0 f i atlsd:AtlDebugAPI.obj
 0001:00028300       _AtlTraceModifyModule@16   00429300 f   atlsd:AtlDebugAPI.obj
 0001:000283e0       _AtlTraceModifyCategory@16 004293e0 f   atlsd:AtlDebugAPI.obj
 0001:00028490       _AtlTraceGetProcess@20     00429490 f   atlsd:AtlDebugAPI.obj
 0001:00028560       _AtlTraceGetModule@16      00429560 f   atlsd:AtlDebugAPI.obj
 0001:00028670       _AtlTraceGetCategory@16    00429670 f   atlsd:AtlDebugAPI.obj
 0001:00028750       _AtlTraceGetUpdateEventNameA@4 00429750 f   atlsd:AtlDebugAPI.obj
 0001:00028780       _AtlTraceGetUpdateEventNameA_s@8 00429780 f   atlsd:AtlDebugAPI.obj
 0001:000287b0       _AtlTraceGetUpdateEventNameU@4 004297b0 f   atlsd:AtlDebugAPI.obj
 0001:00028810       _AtlTraceGetUpdateEventNameU_s@8 00429810 f   atlsd:AtlDebugAPI.obj
 0001:00028870       _AtlTraceVA                00429870 f   atlsd:AtlDebugAPI.obj
 0001:00028b90       ?Name@CAtlTraceCategory@@QBEPB_WXZ 00429b90 f i atlsd:AtlDebugAPI.obj
 0001:00028bb0       _AtlTraceVU                00429bb0 f   atlsd:AtlDebugAPI.obj
 0001:00028f00       _AtlTraceOpenProcess@4     00429f00 f   atlsd:AtlDebugAPI.obj
 0001:00029000       ??_GCAtlAllocator@@QAEPAXI@Z 0042a000 f i atlsd:AtlDebugAPI.obj
 0001:00029030       _AtlTraceCloseProcess@4    0042a030 f   atlsd:AtlDebugAPI.obj
 0001:000290c0       _AtlTraceSnapshotProcess@4 0042a0c0 f   atlsd:AtlDebugAPI.obj
 0001:00029130       _AtlTraceGetProcessInfo@8  0042a130 f   atlsd:AtlDebugAPI.obj
 0001:000292d0       ?Path@CAtlTraceModuleInfo@@QBEPB_WXZ 0042a2d0 f i atlsd:AtlDebugAPI.obj
 0001:000292f0       ?Name@CAtlTraceModuleInfo@@QBEPB_WXZ 0042a2f0 f i atlsd:AtlDebugAPI.obj
 0001:00029310       ?Id@CAtlTraceProcess@@QBEKXZ 0042a310 f i atlsd:AtlDebugAPI.obj
 0001:00029330       _AtlTraceGetModuleInfo@12  0042a330 f   atlsd:AtlDebugAPI.obj
 0001:000294d0       _AtlTraceGetCategoryInfo@16 0042a4d0 f   atlsd:AtlDebugAPI.obj
 0001:00029850       ?CrtDbgReport@CAtlTraceModule@@QBEP6AHHPBDH00ZZXZ 0042a850 f i atlsd:AtlDebugAPI.obj
 0001:00029870       ?_IsTracingEnabled@ATL@@YA_NKKI@Z 0042a870 f   atlsd:AtlDebugAPI.obj
 0001:000298b0       ?GetSize@?$CSimpleArray@UCModuleInfo@CTraceSnapshot@@V?$CSimpleArrayEqualHelper@UCModuleInfo@CTraceSnapshot@@@ATL@@@ATL@@QBEHXZ 0042a8b0 f i atlsd:AtlDebugAPI.obj
 0001:000298d0       ??A?$CSimpleArray@UCModuleInfo@CTraceSnapshot@@V?$CSimpleArrayEqualHelper@UCModuleInfo@CTraceSnapshot@@@ATL@@@ATL@@QAEAAUCModuleInfo@CTraceSnapshot@@H@Z 0042a8d0 f i atlsd:AtlDebugAPI.obj
 0001:00029940       ?strcpy_s@Checked@ATL@@YAXPADIPBD@Z 0042a940 f i atlsd:AtlDebugAPI.obj
 0001:00029970       ?wcscpy_s@Checked@ATL@@YAXPA_WIPB_W@Z 0042a970 f i atlsd:AtlDebugAPI.obj
 0001:000299a0       ??0?$CA2WEX@$0IA@@ATL@@QAE@PBD@Z 0042a9a0 f i atlsd:AtlDebugAPI.obj
 0001:000299d0       ?_AtlGetConversionACP@ATL@@YGIXZ 0042a9d0 f i atlsd:AtlDebugAPI.obj
 0001:000299e0       ??1?$CA2WEX@$0IA@@ATL@@QAE@XZ 0042a9e0 f i atlsd:AtlDebugAPI.obj
 0001:00029a10       ??B?$CA2WEX@$0IA@@ATL@@QBEPA_WXZ 0042aa10 f i atlsd:AtlDebugAPI.obj
 0001:00029a30       ?Init@?$CA2WEX@$0IA@@ATL@@AAEXPBDI@Z 0042aa30 f i atlsd:AtlDebugAPI.obj
 0001:00029b30       ?AtlThrowLastWin32@ATL@@YGXXZ 0042ab30 f i atlsd:AtlDebugAPI.obj
 0001:00029b60       _HRESULT_FROM_WIN32        0042ab60 f i atlsd:AtlDebugAPI.obj
 0001:00029ba0       ??$AtlConvFreeMemory@_W@ATL@@YAXPA_W0H@Z 0042aba0 f i atlsd:AtlDebugAPI.obj
 0001:00029be0       ??$AtlConvAllocMemory@_W@ATL@@YAXPAPA_WHPA_WH@Z 0042abe0 f i atlsd:AtlDebugAPI.obj
 0001:00029d50       ??0CSize@@QAE@XZ           0042ad50 f   atlsd:atltypes.obj
 0001:00029d60       ??0CSize@@QAE@HH@Z         0042ad60 f   atlsd:atltypes.obj
 0001:00029d90       ??0CSize@@QAE@UtagSIZE@@@Z 0042ad90 f   atlsd:atltypes.obj
 0001:00029db0       ??0CSize@@QAE@UtagPOINT@@@Z 0042adb0 f   atlsd:atltypes.obj
 0001:00029dd0       ??0CSize@@QAE@K@Z          0042add0 f   atlsd:atltypes.obj
 0001:00029e10       ??8CSize@@QBEHUtagSIZE@@@Z 0042ae10 f   atlsd:atltypes.obj
 0001:00029e50       ??9CSize@@QBEHUtagSIZE@@@Z 0042ae50 f   atlsd:atltypes.obj
 0001:00029e90       ??YCSize@@QAEXUtagSIZE@@@Z 0042ae90 f   atlsd:atltypes.obj
 0001:00029ec0       ??ZCSize@@QAEXUtagSIZE@@@Z 0042aec0 f   atlsd:atltypes.obj
 0001:00029ef0       ?SetSize@CSize@@QAEXHH@Z   0042aef0 f   atlsd:atltypes.obj
 0001:00029f10       ??HCSize@@QBE?AV0@UtagSIZE@@@Z 0042af10 f   atlsd:atltypes.obj
 0001:00029f40       ??GCSize@@QBE?AV0@UtagSIZE@@@Z 0042af40 f   atlsd:atltypes.obj
 0001:00029f70       ??GCSize@@QBE?AV0@XZ       0042af70 f   atlsd:atltypes.obj
 0001:00029fa0       ??HCSize@@QBE?AVCPoint@@UtagPOINT@@@Z 0042afa0 f   atlsd:atltypes.obj
 0001:00029fd0       ??GCSize@@QBE?AVCPoint@@UtagPOINT@@@Z 0042afd0 f   atlsd:atltypes.obj
 0001:0002a000       ??HCSize@@QBE?AVCRect@@PBUtagRECT@@@Z 0042b000 f   atlsd:atltypes.obj
 0001:0002a050       ??GCSize@@QBE?AVCRect@@PBUtagRECT@@@Z 0042b050 f   atlsd:atltypes.obj
 0001:0002a0a0       ??0CPoint@@QAE@XZ          0042b0a0 f   atlsd:atltypes.obj
 0001:0002a0b0       ??0CPoint@@QAE@HH@Z        0042b0b0 f   atlsd:atltypes.obj
 0001:0002a0e0       ??0CPoint@@QAE@UtagPOINT@@@Z 0042b0e0 f   atlsd:atltypes.obj
 0001:0002a100       ??0CPoint@@QAE@UtagSIZE@@@Z 0042b100 f   atlsd:atltypes.obj
 0001:0002a120       ??0CPoint@@QAE@J@Z         0042b120 f   atlsd:atltypes.obj
 0001:0002a160       ?Offset@CPoint@@QAEXHH@Z   0042b160 f   atlsd:atltypes.obj
 0001:0002a190       ?Offset@CPoint@@QAEXUtagPOINT@@@Z 0042b190 f   atlsd:atltypes.obj
 0001:0002a1c0       ?Offset@CPoint@@QAEXUtagSIZE@@@Z 0042b1c0 f   atlsd:atltypes.obj
 0001:0002a1f0       ?SetPoint@CPoint@@QAEXHH@Z 0042b1f0 f   atlsd:atltypes.obj
 0001:0002a210       ??8CPoint@@QBEHUtagPOINT@@@Z 0042b210 f   atlsd:atltypes.obj
 0001:0002a250       ??9CPoint@@QBEHUtagPOINT@@@Z 0042b250 f   atlsd:atltypes.obj
 0001:0002a290       ??YCPoint@@QAEXUtagSIZE@@@Z 0042b290 f   atlsd:atltypes.obj
 0001:0002a2c0       ??ZCPoint@@QAEXUtagSIZE@@@Z 0042b2c0 f   atlsd:atltypes.obj
 0001:0002a2f0       ??YCPoint@@QAEXUtagPOINT@@@Z 0042b2f0 f   atlsd:atltypes.obj
 0001:0002a320       ??ZCPoint@@QAEXUtagPOINT@@@Z 0042b320 f   atlsd:atltypes.obj
 0001:0002a350       ??HCPoint@@QBE?AV0@UtagSIZE@@@Z 0042b350 f   atlsd:atltypes.obj
 0001:0002a380       ??GCPoint@@QBE?AV0@UtagSIZE@@@Z 0042b380 f   atlsd:atltypes.obj
 0001:0002a3b0       ??GCPoint@@QBE?AV0@XZ      0042b3b0 f   atlsd:atltypes.obj
 0001:0002a3e0       ??HCPoint@@QBE?AV0@UtagPOINT@@@Z 0042b3e0 f   atlsd:atltypes.obj
 0001:0002a410       ??GCPoint@@QBE?AVCSize@@UtagPOINT@@@Z 0042b410 f   atlsd:atltypes.obj
 0001:0002a440       ??HCPoint@@QBE?AVCRect@@PBUtagRECT@@@Z 0042b440 f   atlsd:atltypes.obj
 0001:0002a490       ??GCPoint@@QBE?AVCRect@@PBUtagRECT@@@Z 0042b490 f   atlsd:atltypes.obj
 0001:0002a4e0       ??0CRect@@QAE@XZ           0042b4e0 f   atlsd:atltypes.obj
 0001:0002a4f0       ??0CRect@@QAE@HHHH@Z       0042b4f0 f   atlsd:atltypes.obj
 0001:0002a530       ??0CRect@@QAE@ABUtagRECT@@@Z 0042b530 f   atlsd:atltypes.obj
 0001:0002a550       ??0CRect@@QAE@PBUtagRECT@@@Z 0042b550 f   atlsd:atltypes.obj
 0001:0002a570       ??0CRect@@QAE@UtagPOINT@@UtagSIZE@@@Z 0042b570 f   atlsd:atltypes.obj
 0001:0002a5b0       ??0CRect@@QAE@UtagPOINT@@0@Z 0042b5b0 f   atlsd:atltypes.obj
 0001:0002a5f0       ?Width@CRect@@QBEHXZ       0042b5f0 f   atlsd:atltypes.obj
 0001:0002a610       ?Height@CRect@@QBEHXZ      0042b610 f   atlsd:atltypes.obj
 0001:0002a630       ?Size@CRect@@QBE?AVCSize@@XZ 0042b630 f   atlsd:atltypes.obj
 0001:0002a670       ?TopLeft@CRect@@QAEAAVCPoint@@XZ 0042b670 f   atlsd:atltypes.obj
 0001:0002a680       ?BottomRight@CRect@@QAEAAVCPoint@@XZ 0042b680 f   atlsd:atltypes.obj
 0001:0002a6a0       ?TopLeft@CRect@@QBEABVCPoint@@XZ 0042b6a0 f   atlsd:atltypes.obj
 0001:0002a6b0       ?BottomRight@CRect@@QBEABVCPoint@@XZ 0042b6b0 f   atlsd:atltypes.obj
 0001:0002a6d0       ?CenterPoint@CRect@@QBE?AVCPoint@@XZ 0042b6d0 f   atlsd:atltypes.obj
 0001:0002a710       ?SwapLeftRight@CRect@@QAEXXZ 0042b710 f   atlsd:atltypes.obj
 0001:0002a730       ?SwapLeftRight@CRect@@SGXPAUtagRECT@@@Z 0042b730 f   atlsd:atltypes.obj
 0001:0002a760       ??BCRect@@QAEPAUtagRECT@@XZ 0042b760 f   atlsd:atltypes.obj
 0001:0002a770       ??BCRect@@QBEPBUtagRECT@@XZ 0042b770 f   atlsd:atltypes.obj
 0001:0002a780       ?IsRectEmpty@CRect@@QBEHXZ 0042b780 f   atlsd:atltypes.obj
 0001:0002a7a0       ?IsRectNull@CRect@@QBEHXZ  0042b7a0 f   atlsd:atltypes.obj
 0001:0002a7f0       ?PtInRect@CRect@@QBEHUtagPOINT@@@Z 0042b7f0 f   atlsd:atltypes.obj
 0001:0002a820       ?SetRect@CRect@@QAEXHHHH@Z 0042b820 f   atlsd:atltypes.obj
 0001:0002a850       ?SetRect@CRect@@QAEXUtagPOINT@@0@Z 0042b850 f   atlsd:atltypes.obj
 0001:0002a880       ?SetRectEmpty@CRect@@QAEXXZ 0042b880 f   atlsd:atltypes.obj
 0001:0002a8a0       ?CopyRect@CRect@@QAEXPBUtagRECT@@@Z 0042b8a0 f   atlsd:atltypes.obj
 0001:0002a8c0       ?EqualRect@CRect@@QBEHPBUtagRECT@@@Z 0042b8c0 f   atlsd:atltypes.obj
 0001:0002a8e0       ?InflateRect@CRect@@QAEXHH@Z 0042b8e0 f   atlsd:atltypes.obj
 0001:0002a910       ?InflateRect@CRect@@QAEXUtagSIZE@@@Z 0042b910 f   atlsd:atltypes.obj
 0001:0002a940       ?DeflateRect@CRect@@QAEXHH@Z 0042b940 f   atlsd:atltypes.obj
 0001:0002a970       ?DeflateRect@CRect@@QAEXUtagSIZE@@@Z 0042b970 f   atlsd:atltypes.obj
 0001:0002a9a0       ?OffsetRect@CRect@@QAEXHH@Z 0042b9a0 f   atlsd:atltypes.obj
 0001:0002a9d0       ?OffsetRect@CRect@@QAEXUtagPOINT@@@Z 0042b9d0 f   atlsd:atltypes.obj
 0001:0002aa00       ?OffsetRect@CRect@@QAEXUtagSIZE@@@Z 0042ba00 f   atlsd:atltypes.obj
 0001:0002aa30       ?MoveToY@CRect@@QAEXH@Z    0042ba30 f   atlsd:atltypes.obj
 0001:0002aa60       ?MoveToX@CRect@@QAEXH@Z    0042ba60 f   atlsd:atltypes.obj
 0001:0002aa90       ?MoveToXY@CRect@@QAEXHH@Z  0042ba90 f   atlsd:atltypes.obj
 0001:0002aac0       ?MoveToXY@CRect@@QAEXUtagPOINT@@@Z 0042bac0 f   atlsd:atltypes.obj
 0001:0002aaf0       ?IntersectRect@CRect@@QAEHPBUtagRECT@@0@Z 0042baf0 f   atlsd:atltypes.obj
 0001:0002ab20       ?UnionRect@CRect@@QAEHPBUtagRECT@@0@Z 0042bb20 f   atlsd:atltypes.obj
 0001:0002ab50       ??4CRect@@QAEXABUtagRECT@@@Z 0042bb50 f   atlsd:atltypes.obj
 0001:0002ab70       ??8CRect@@QBEHABUtagRECT@@@Z 0042bb70 f   atlsd:atltypes.obj
 0001:0002ab90       ??9CRect@@QBEHABUtagRECT@@@Z 0042bb90 f   atlsd:atltypes.obj
 0001:0002abc0       ??YCRect@@QAEXUtagPOINT@@@Z 0042bbc0 f   atlsd:atltypes.obj
 0001:0002abf0       ??YCRect@@QAEXUtagSIZE@@@Z 0042bbf0 f   atlsd:atltypes.obj
 0001:0002ac20       ??YCRect@@QAEXPBUtagRECT@@@Z 0042bc20 f   atlsd:atltypes.obj
 0001:0002ac40       ??ZCRect@@QAEXUtagPOINT@@@Z 0042bc40 f   atlsd:atltypes.obj
 0001:0002ac70       ??ZCRect@@QAEXUtagSIZE@@@Z 0042bc70 f   atlsd:atltypes.obj
 0001:0002aca0       ??ZCRect@@QAEXPBUtagRECT@@@Z 0042bca0 f   atlsd:atltypes.obj
 0001:0002acc0       ??_4CRect@@QAEXABUtagRECT@@@Z 0042bcc0 f   atlsd:atltypes.obj
 0001:0002acf0       ??_5CRect@@QAEXABUtagRECT@@@Z 0042bcf0 f   atlsd:atltypes.obj
 0001:0002ad20       ??HCRect@@QBE?AV0@UtagPOINT@@@Z 0042bd20 f   atlsd:atltypes.obj
 0001:0002ad80       ??GCRect@@QBE?AV0@UtagPOINT@@@Z 0042bd80 f   atlsd:atltypes.obj
 0001:0002ade0       ??HCRect@@QBE?AV0@UtagSIZE@@@Z 0042bde0 f   atlsd:atltypes.obj
 0001:0002ae40       ??GCRect@@QBE?AV0@UtagSIZE@@@Z 0042be40 f   atlsd:atltypes.obj
 0001:0002aea0       ??HCRect@@QBE?AV0@PBUtagRECT@@@Z 0042bea0 f   atlsd:atltypes.obj
 0001:0002aef0       ??GCRect@@QBE?AV0@PBUtagRECT@@@Z 0042bef0 f   atlsd:atltypes.obj
 0001:0002af40       ??ICRect@@QBE?AV0@ABUtagRECT@@@Z 0042bf40 f   atlsd:atltypes.obj
 0001:0002af90       ??UCRect@@QBE?AV0@ABUtagRECT@@@Z 0042bf90 f   atlsd:atltypes.obj
 0001:0002afe0       ?SubtractRect@CRect@@QAEHPBUtagRECT@@0@Z 0042bfe0 f   atlsd:atltypes.obj
 0001:0002b010       ?NormalizeRect@CRect@@QAEXXZ 0042c010 f   atlsd:atltypes.obj
 0001:0002b080       ?InflateRect@CRect@@QAEXPBUtagRECT@@@Z 0042c080 f   atlsd:atltypes.obj
 0001:0002b0e0       ?InflateRect@CRect@@QAEXHHHH@Z 0042c0e0 f   atlsd:atltypes.obj
 0001:0002b130       ?DeflateRect@CRect@@QAEXPBUtagRECT@@@Z 0042c130 f   atlsd:atltypes.obj
 0001:0002b190       ?DeflateRect@CRect@@QAEXHHHH@Z 0042c190 f   atlsd:atltypes.obj
 0001:0002b1e0       ?MulDiv@CRect@@QBE?AV1@HH@Z 0042c1e0 f   atlsd:atltypes.obj
 0001:0002b260       ??0CTimeSpan@ATL@@QAE@XZ   0042c260 f   atlsd:atltime.obj
 0001:0002b280       ??0CTimeSpan@ATL@@QAE@_J@Z 0042c280 f   atlsd:atltime.obj
 0001:0002b2a0       ??0CTimeSpan@ATL@@QAE@JHHH@Z 0042c2a0 f   atlsd:atltime.obj
 0001:0002b320       ?GetDays@CTimeSpan@ATL@@QBE_JXZ 0042c320 f   atlsd:atltime.obj
 0001:0002b350       ?GetTotalHours@CTimeSpan@ATL@@QBE_JXZ 0042c350 f   atlsd:atltime.obj
 0001:0002b380       ?GetHours@CTimeSpan@ATL@@QBEJXZ 0042c380 f   atlsd:atltime.obj
 0001:0002b3c0       ?GetTotalMinutes@CTimeSpan@ATL@@QBE_JXZ 0042c3c0 f   atlsd:atltime.obj
 0001:0002b3e0       ?GetMinutes@CTimeSpan@ATL@@QBEJXZ 0042c3e0 f   atlsd:atltime.obj
 0001:0002b420       ?GetTotalSeconds@CTimeSpan@ATL@@QBE_JXZ 0042c420 f   atlsd:atltime.obj
 0001:0002b440       ?GetSeconds@CTimeSpan@ATL@@QBEJXZ 0042c440 f   atlsd:atltime.obj
 0001:0002b480       ?GetTimeSpan@CTimeSpan@ATL@@QBE_JXZ 0042c480 f   atlsd:atltime.obj
 0001:0002b4a0       ??HCTimeSpan@ATL@@QBE?AV01@V01@@Z 0042c4a0 f   atlsd:atltime.obj
 0001:0002b4d0       ??GCTimeSpan@ATL@@QBE?AV01@V01@@Z 0042c4d0 f   atlsd:atltime.obj
 0001:0002b500       ??YCTimeSpan@ATL@@QAEAAV01@V01@@Z 0042c500 f   atlsd:atltime.obj
 0001:0002b530       ??ZCTimeSpan@ATL@@QAEAAV01@V01@@Z 0042c530 f   atlsd:atltime.obj
 0001:0002b560       ??8CTimeSpan@ATL@@QBE_NV01@@Z 0042c560 f   atlsd:atltime.obj
 0001:0002b5a0       ??9CTimeSpan@ATL@@QBE_NV01@@Z 0042c5a0 f   atlsd:atltime.obj
 0001:0002b5e0       ??MCTimeSpan@ATL@@QBE_NV01@@Z 0042c5e0 f   atlsd:atltime.obj
 0001:0002b630       ??OCTimeSpan@ATL@@QBE_NV01@@Z 0042c630 f   atlsd:atltime.obj
 0001:0002b680       ??NCTimeSpan@ATL@@QBE_NV01@@Z 0042c680 f   atlsd:atltime.obj
 0001:0002b6d0       ??PCTimeSpan@ATL@@QBE_NV01@@Z 0042c6d0 f   atlsd:atltime.obj
 0001:0002b720       ?GetTickCount@CTime@ATL@@SG?AV12@XZ 0042c720 f   atlsd:atltime.obj
 0001:0002b740       ?IsValidFILETIME@CTime@ATL@@SGHABU_FILETIME@@@Z 0042c740 f   atlsd:atltime.obj
 0001:0002b780       ??0CTime@ATL@@QAE@XZ       0042c780 f   atlsd:atltime.obj
 0001:0002b7a0       ??0CTime@ATL@@QAE@_J@Z     0042c7a0 f   atlsd:atltime.obj
 0001:0002b7c0       ??0CTime@ATL@@QAE@HHHHHHH@Z 0042c7c0 f   atlsd:atltime.obj
 0001:0002baa0       ??0CTime@ATL@@QAE@GGH@Z    0042caa0 f   atlsd:atltime.obj
 0001:0002bb90       ??0CTime@ATL@@QAE@ABU_SYSTEMTIME@@H@Z 0042cb90 f   atlsd:atltime.obj
 0001:0002bc30       ??0CTime@ATL@@QAE@ABU_FILETIME@@H@Z 0042cc30 f   atlsd:atltime.obj
 0001:0002bcc0       ??4CTime@ATL@@QAEAAV01@_J@Z 0042ccc0 f   atlsd:atltime.obj
 0001:0002bce0       ??YCTime@ATL@@QAEAAV01@VCTimeSpan@1@@Z 0042cce0 f   atlsd:atltime.obj
 0001:0002bd10       ??ZCTime@ATL@@QAEAAV01@VCTimeSpan@1@@Z 0042cd10 f   atlsd:atltime.obj
 0001:0002bd40       ??GCTime@ATL@@QBE?AVCTimeSpan@1@V01@@Z 0042cd40 f   atlsd:atltime.obj
 0001:0002bd70       ??GCTime@ATL@@QBE?AV01@VCTimeSpan@1@@Z 0042cd70 f   atlsd:atltime.obj
 0001:0002bdb0       ??HCTime@ATL@@QBE?AV01@VCTimeSpan@1@@Z 0042cdb0 f   atlsd:atltime.obj
 0001:0002bde0       ??8CTime@ATL@@QBE_NV01@@Z  0042cde0 f   atlsd:atltime.obj
 0001:0002be20       ??9CTime@ATL@@QBE_NV01@@Z  0042ce20 f   atlsd:atltime.obj
 0001:0002be60       ??MCTime@ATL@@QBE_NV01@@Z  0042ce60 f   atlsd:atltime.obj
 0001:0002beb0       ??OCTime@ATL@@QBE_NV01@@Z  0042ceb0 f   atlsd:atltime.obj
 0001:0002bf00       ??NCTime@ATL@@QBE_NV01@@Z  0042cf00 f   atlsd:atltime.obj
 0001:0002bf50       ??PCTime@ATL@@QBE_NV01@@Z  0042cf50 f   atlsd:atltime.obj
 0001:0002bfa0       ?GetGmtTm@CTime@ATL@@QBEPAUtm@@PAU3@@Z 0042cfa0 f   atlsd:atltime.obj
 0001:0002c040       ?GetLocalTm@CTime@ATL@@QBEPAUtm@@PAU3@@Z 0042d040 f   atlsd:atltime.obj
 0001:0002c0e0       ?GetAsSystemTime@CTime@ATL@@QBE_NAAU_SYSTEMTIME@@@Z 0042d0e0 f   atlsd:atltime.obj
 0001:0002c180       ?GetTime@CTime@ATL@@QBE_JXZ 0042d180 f   atlsd:atltime.obj
 0001:0002c1a0       ?GetYear@CTime@ATL@@QBEHXZ 0042d1a0 f   atlsd:atltime.obj
 0001:0002c1e0       ?GetMonth@CTime@ATL@@QBEHXZ 0042d1e0 f   atlsd:atltime.obj
 0001:0002c220       ?GetDay@CTime@ATL@@QBEHXZ  0042d220 f   atlsd:atltime.obj
 0001:0002c260       ?GetHour@CTime@ATL@@QBEHXZ 0042d260 f   atlsd:atltime.obj
 0001:0002c2a0       ?GetMinute@CTime@ATL@@QBEHXZ 0042d2a0 f   atlsd:atltime.obj
 0001:0002c2e0       ?GetSecond@CTime@ATL@@QBEHXZ 0042d2e0 f   atlsd:atltime.obj
 0001:0002c320       ?GetDayOfWeek@CTime@ATL@@QBEHXZ 0042d320 f   atlsd:atltime.obj
 0001:0002c360       ??0CFileTimeSpan@ATL@@QAE@XZ 0042d360 f   atlsd:atltime.obj
 0001:0002c380       ??0CFileTimeSpan@ATL@@QAE@ABV01@@Z 0042d380 f   atlsd:atltime.obj
 0001:0002c3b0       ??0CFileTimeSpan@ATL@@QAE@_J@Z 0042d3b0 f   atlsd:atltime.obj
 0001:0002c3d0       ??4CFileTimeSpan@ATL@@QAEAAV01@ABV01@@Z 0042d3d0 f   atlsd:atltime.obj
 0001:0002c400       ??YCFileTimeSpan@ATL@@QAEAAV01@V01@@Z 0042d400 f   atlsd:atltime.obj
 0001:0002c430       ??ZCFileTimeSpan@ATL@@QAEAAV01@V01@@Z 0042d430 f   atlsd:atltime.obj
 0001:0002c460       ??HCFileTimeSpan@ATL@@QBE?AV01@V01@@Z 0042d460 f   atlsd:atltime.obj
 0001:0002c490       ??GCFileTimeSpan@ATL@@QBE?AV01@V01@@Z 0042d490 f   atlsd:atltime.obj
 0001:0002c4c0       ??8CFileTimeSpan@ATL@@QBE_NV01@@Z 0042d4c0 f   atlsd:atltime.obj
 0001:0002c500       ??9CFileTimeSpan@ATL@@QBE_NV01@@Z 0042d500 f   atlsd:atltime.obj
 0001:0002c540       ??MCFileTimeSpan@ATL@@QBE_NV01@@Z 0042d540 f   atlsd:atltime.obj
 0001:0002c590       ??OCFileTimeSpan@ATL@@QBE_NV01@@Z 0042d590 f   atlsd:atltime.obj
 0001:0002c5e0       ??NCFileTimeSpan@ATL@@QBE_NV01@@Z 0042d5e0 f   atlsd:atltime.obj
 0001:0002c630       ??PCFileTimeSpan@ATL@@QBE_NV01@@Z 0042d630 f   atlsd:atltime.obj
 0001:0002c680       ?GetTimeSpan@CFileTimeSpan@ATL@@QBE_JXZ 0042d680 f   atlsd:atltime.obj
 0001:0002c6a0       ?SetTimeSpan@CFileTimeSpan@ATL@@QAEX_J@Z 0042d6a0 f   atlsd:atltime.obj
 0001:0002c6c0       ??0CFileTime@ATL@@QAE@XZ   0042d6c0 f   atlsd:atltime.obj
 0001:0002c6f0       ??0CFileTime@ATL@@QAE@ABU_FILETIME@@@Z 0042d6f0 f   atlsd:atltime.obj
 0001:0002c720       ??0CFileTime@ATL@@QAE@_K@Z 0042d720 f   atlsd:atltime.obj
 0001:0002c750       ??4CFileTime@ATL@@QAEAAV01@ABU_FILETIME@@@Z 0042d750 f   atlsd:atltime.obj
 0001:0002c780       ?GetTickCount@CFileTime@ATL@@SG?AV12@XZ 0042d780 f   atlsd:atltime.obj
 0001:0002c7c0       ??YCFileTime@ATL@@QAEAAV01@VCFileTimeSpan@1@@Z 0042d7c0 f   atlsd:atltime.obj
 0001:0002c800       ??ZCFileTime@ATL@@QAEAAV01@VCFileTimeSpan@1@@Z 0042d800 f   atlsd:atltime.obj
 0001:0002c840       ??HCFileTime@ATL@@QBE?AV01@VCFileTimeSpan@1@@Z 0042d840 f   atlsd:atltime.obj
 0001:0002c880       ??GCFileTime@ATL@@QBE?AV01@VCFileTimeSpan@1@@Z 0042d880 f   atlsd:atltime.obj
 0001:0002c8c0       ??GCFileTime@ATL@@QBE?AVCFileTimeSpan@1@V01@@Z 0042d8c0 f   atlsd:atltime.obj
 0001:0002c900       ??8CFileTime@ATL@@QBE_NV01@@Z 0042d900 f   atlsd:atltime.obj
 0001:0002c960       ??9CFileTime@ATL@@QBE_NV01@@Z 0042d960 f   atlsd:atltime.obj
 0001:0002c9c0       ??MCFileTime@ATL@@QBE_NV01@@Z 0042d9c0 f   atlsd:atltime.obj
 0001:0002ca20       ??OCFileTime@ATL@@QBE_NV01@@Z 0042da20 f   atlsd:atltime.obj
 0001:0002ca80       ??NCFileTime@ATL@@QBE_NV01@@Z 0042da80 f   atlsd:atltime.obj
 0001:0002cae0       ??PCFileTime@ATL@@QBE_NV01@@Z 0042dae0 f   atlsd:atltime.obj
 0001:0002cb40       ?GetTime@CFileTime@ATL@@QBE_KXZ 0042db40 f   atlsd:atltime.obj
 0001:0002cb70       ?SetTime@CFileTime@ATL@@QAEX_K@Z 0042db70 f   atlsd:atltime.obj
 0001:0002cba0       ?UTCToLocal@CFileTime@ATL@@QBE?AV12@XZ 0042dba0 f   atlsd:atltime.obj
 0001:0002cbe0       ?LocalToUTC@CFileTime@ATL@@QBE?AV12@XZ 0042dbe0 f   atlsd:atltime.obj
 0001:0002cc20       ?Init@CAtlAllocator@@QAE_NPBDK@Z 0042dc20 f   atlsd:Allocate.obj
 0001:0002cf50       ?IncRef@CAtlTraceProcess@@QAEIXZ 0042df50 f i atlsd:Allocate.obj
 0001:0002cf80       ?Base@CAtlTraceProcess@@QBEPAXXZ 0042df80 f i atlsd:Allocate.obj
 0001:0002cfa0       ?Open@CAtlAllocator@@QAE_NPBD@Z 0042dfa0 f   atlsd:Allocate.obj
 0001:0002d0e0       ?Close@CAtlAllocator@@QAEX_N@Z 0042e0e0 f   atlsd:Allocate.obj
 0001:0002d150       ?DecRef@CAtlTraceProcess@@QAEIXZ 0042e150 f i atlsd:Allocate.obj
 0001:0002d180       ?GetModule@CAtlAllocator@@QBEPAVCAtlTraceModule@@H@Z 0042e180 f   atlsd:Allocate.obj
 0001:0002d210       ?ModuleCount@CAtlTraceProcess@@QBEHXZ 0042e210 f i atlsd:Allocate.obj
 0001:0002d230       ?GetCategory@CAtlAllocator@@QBEPAVCAtlTraceCategory@@H@Z 0042e230 f   atlsd:Allocate.obj
 0001:0002d2d0       ?MaxSize@CAtlTraceProcess@@QBEKXZ 0042e2d0 f i atlsd:Allocate.obj
 0001:0002d2f0       ?CategoryCount@CAtlTraceProcess@@QBEHXZ 0042e2f0 f i atlsd:Allocate.obj
 0001:0002d310       ?GetCategoryCount@CAtlAllocator@@QBEHH@Z 0042e310 f   atlsd:Allocate.obj
 0001:0002d380       ?GetCategoryCount@CAtlAllocator@@QBEHABVCAtlTraceModule@@@Z 0042e380 f   atlsd:Allocate.obj
 0001:0002d3e0       ?GetModuleCount@CAtlAllocator@@QBEHXZ 0042e3e0 f   atlsd:Allocate.obj
 0001:0002d430       ?FindModule@CAtlAllocator@@QBE_NPB_WPAI@Z 0042e430 f   atlsd:Allocate.obj
 0001:0002d4a0       ?AddModule@CAtlAllocator@@QAEHPAUHINSTANCE__@@@Z 0042e4a0 f   atlsd:Allocate.obj
 0001:0002d660       ?TryAllocate@CAtlTraceSettings@@QAE_NXZ 0042e660 f i atlsd:Allocate.obj
 0001:0002d6a0       ?MarkValid@CAtlTraceSettings@@QAEXJ@Z 0042e6a0 f i atlsd:Allocate.obj
 0001:0002d6e0       ?IncModuleCount@CAtlTraceProcess@@QAEXI@Z 0042e6e0 f i atlsd:Allocate.obj
 0001:0002d710       ?AddCategory@CAtlAllocator@@QAEHHPB_W@Z 0042e710 f   atlsd:Allocate.obj
 0001:0002d930       ?TryAddRef@CAtlTraceSettings@@QAE_NXZ 0042e930 f i atlsd:Allocate.obj
 0001:0002d970       ?Release@CAtlTraceSettings@@QAEXXZ 0042e970 f i atlsd:Allocate.obj
 0001:0002d9a0       ?IncCategoryCount@CAtlTraceProcess@@QAEXI@Z 0042e9a0 f i atlsd:Allocate.obj
 0001:0002d9d0       ?RemoveModule@CAtlAllocator@@QAE_NH@Z 0042e9d0 f   atlsd:Allocate.obj
 0001:0002da70       ?CleanUp@CAtlAllocator@@QAEXXZ 0042ea70 f   atlsd:Allocate.obj
 0001:0002da90       ?TakeSnapshot@CAtlAllocator@@QAEXXZ 0042ea90 f   atlsd:Allocate.obj
 0001:0002dc50       ?ReleaseSnapshot@CAtlAllocator@@QAEXXZ 0042ec50 f   atlsd:Allocate.obj
 0001:0002dd20       ?Add@?$CSimpleArray@UCModuleInfo@CTraceSnapshot@@V?$CSimpleArrayEqualHelper@UCModuleInfo@CTraceSnapshot@@@ATL@@@ATL@@QAEHABUCModuleInfo@CTraceSnapshot@@@Z 0042ed20 f i atlsd:Allocate.obj
 0001:0002de40       ?GetSize@?$CSimpleArray@KV?$CSimpleArrayEqualHelper@K@ATL@@@ATL@@QBEHXZ 0042ee40 f i atlsd:Allocate.obj
 0001:0002de60       ?Add@?$CSimpleArray@KV?$CSimpleArrayEqualHelper@K@ATL@@@ATL@@QAEHABK@Z 0042ee60 f i atlsd:Allocate.obj
 0001:0002df80       ?RemoveAt@?$CSimpleArray@KV?$CSimpleArrayEqualHelper@K@ATL@@@ATL@@QAEHH@Z 0042ef80 f i atlsd:Allocate.obj
 0001:0002e040       ??A?$CSimpleArray@KV?$CSimpleArrayEqualHelper@K@ATL@@@ATL@@QAEAAKH@Z 0042f040 f i atlsd:Allocate.obj
 0001:0002e0b0       ?InternalSetAtIndex@?$CSimpleArray@UCModuleInfo@CTraceSnapshot@@V?$CSimpleArrayEqualHelper@UCModuleInfo@CTraceSnapshot@@@ATL@@@ATL@@QAEXHABUCModuleInfo@CTraceSnapshot@@@Z 0042f0b0 f i atlsd:Allocate.obj
 0001:0002e100       ?InternalSetAtIndex@?$CSimpleArray@KV?$CSimpleArrayEqualHelper@K@ATL@@@ATL@@QAEXHABK@Z 0042f100 f i atlsd:Allocate.obj
 0001:0002e150       ??0Wrapper@?$CSimpleArray@UCModuleInfo@CTraceSnapshot@@V?$CSimpleArrayEqualHelper@UCModuleInfo@CTraceSnapshot@@@ATL@@@ATL@@QAE@ABUCModuleInfo@CTraceSnapshot@@@Z 0042f150 f i atlsd:Allocate.obj
 0001:0002e180       ??0Wrapper@?$CSimpleArray@KV?$CSimpleArrayEqualHelper@K@ATL@@@ATL@@QAE@ABK@Z 0042f180 f i atlsd:Allocate.obj
 0001:0002e1a0       ??$?2UCModuleInfo@CTraceSnapshot@@@Wrapper@?$CSimpleArray@UCModuleInfo@CTraceSnapshot@@V?$CSimpleArrayEqualHelper@UCModuleInfo@CTraceSnapshot@@@ATL@@@ATL@@SAPAXIPAUCModuleInfo@CTraceSnapshot@@@Z 0042f1a0 f i atlsd:Allocate.obj
 0001:0002e1b0       ??$?2K@Wrapper@?$CSimpleArray@KV?$CSimpleArrayEqualHelper@K@ATL@@@ATL@@SAPAXIPAK@Z 0042f1b0 f i atlsd:Allocate.obj
 0001:0002e1c0       ?memmove_s@Checked@ATL@@YAXPAXIPBXI@Z 0042f1c0 f i atlsd:Allocate.obj
 0001:0002e1f0       ??2@YAPAXIPAX@Z            0042f1f0 f i atlsd:Allocate.obj
 0001:0002e200       ??0CAtlTraceModuleInfo@@QAE@XZ 0042f200 f   atlsd:AtlTraceModuleManager.obj
 0001:0002e250       ?Reset@CAtlTraceModuleInfo@@QAEXPAUHINSTANCE__@@@Z 0042f250 f   atlsd:AtlTraceModuleManager.obj
 0001:0002e390       ??0CAtlTraceCategory@@QAE@XZ 0042f390 f   atlsd:AtlTraceModuleManager.obj
 0001:0002e3d0       ??0CAtlTraceSettings@@QAE@XZ 0042f3d0 f i atlsd:AtlTraceModuleManager.obj
 0001:0002e410       ?Reset@CAtlTraceCategory@@QAEXPB_WJ@Z 0042f410 f   atlsd:AtlTraceModuleManager.obj
 0001:0002e460       ??0CAtlTraceModule@@QAE@XZ 0042f460 f   atlsd:AtlTraceModuleManager.obj
 0001:0002e4a0       ?CrtDbgReport@CAtlTraceModule@@QAEXP6AHHPBDH00ZZ@Z 0042f4a0 f   atlsd:AtlTraceModuleManager.obj
 0001:0002e4e0       ??0CAtlTraceProcess@@QAE@K@Z 0042f4e0 f   atlsd:AtlTraceModuleManager.obj
 0001:0002e5b0       ?GetNextCookie@CAtlTraceProcess@@QAEJXZ 0042f5b0 f   atlsd:AtlTraceModuleManager.obj
 0001:0002e5d0       _sgemm_                    0042f5d0 f   blas:sgemm.obj
 0001:0002f090       _dgemm_                    00430090 f   blas:dgemm.obj
 0001:0002fae0       _xerbla_                   00430ae0 f   blas:xerbla.obj
 0001:0002fb00       _lsame_                    00430b00 f   blas:lsame.obj
 0001:0002fb40       _sgesvd_                   00430b40 f   lapack:sgesvd.obj
 0001:000377b0       _spotf2_                   004387b0 f   lapack:spotf2.obj
 0001:00037b30       _dgesvd_                   00438b30 f   lapack:dgesvd.obj
 0001:0003f790       _dpotf2_                   00440790 f   lapack:dpotf2.obj
 0001:0003fb20       _dtrtrs_                   00440b20 f   lapack:dtrtrs.obj
 0001:0003fd40       _dorgqr_                   00440d40 f   lapack:dorgqr.obj
 0001:00040230       _dgeqrf_                   00441230 f   lapack:dgeqrf.obj
 0001:00040640       _dpotrs_                   00441640 f   lapack:dpotrs.obj
 0001:00040810       _dpotrf_                   00441810 f   lapack:dpotrf.obj
 0001:00040c80       _dgetrs_                   00441c80 f   lapack:dgetrs.obj
 0001:00040ef0       _dgetrf_                   00441ef0 f   lapack:dgetrf.obj
 0001:00041260       _dsytrs_                   00442260 f   lapack:dsytrs.obj
 0001:00041c40       _dsytrf_                   00442c40 f   lapack:dsytrf.obj
 0001:00041ff0       _strtrs_                   00442ff0 f   lapack:strtrs.obj
 0001:00042210       _sorgqr_                   00443210 f   lapack:sorgqr.obj
 0001:00042720       _sgeqrf_                   00443720 f   lapack:sgeqrf.obj
 0001:00042b30       _spotrs_                   00443b30 f   lapack:spotrs.obj
 0001:00042d00       _spotrf_                   00443d00 f   lapack:spotrf.obj
 0001:00043170       _sgetrs_                   00444170 f   lapack:sgetrs.obj
 0001:000433e0       _sgetrf_                   004443e0 f   lapack:sgetrf.obj
 0001:00043750       _ssytrs_                   00444750 f   lapack:ssytrs.obj
 0001:00044210       _ssytrf_                   00445210 f   lapack:ssytrf.obj
 0001:000445c0       _sorglq_                   004455c0 f   lapack:sorglq.obj
 0001:00044ab0       _sgelqf_                   00445ab0 f   lapack:sgelqf.obj
 0001:00044ee0       _sormbr_                   00445ee0 f   lapack:sormbr.obj
 0001:00045570       _slacpy_                   00446570 f   lapack:slacpy.obj
 0001:000458e0       _sbdsqr_                   004468e0 f   lapack:sbdsqr.obj
 0001:00047830       _sorgbr_                   00448830 f   lapack:sorgbr.obj
 0001:00047d70       _sgebrd_                   00448d70 f   lapack:sgebrd.obj
 0001:00048310       _slaset_                   00449310 f   lapack:slaset.obj
 0001:00048620       _slascl_                   00449620 f   lapack:slascl.obj
 0001:00049020       _slange_                   0044a020 f   lapack:slange.obj
 0001:000496d0       _slamc3_                   0044a6d0 f   lapack:slamch.obj
 0001:000496f0       _slamc4_                   0044a6f0 f   lapack:slamch.obj
 0001:00049960       _slamc5_                   0044a960 f   lapack:slamch.obj
 0001:00049c50       _slamc1_                   0044ac50 f   lapack:slamch.obj
 0001:00049e90       _slamc2_                   0044ae90 f   lapack:slamch.obj
 0001:0004a2a0       _slamch_                   0044b2a0 f   lapack:slamch.obj
 0001:0004a4f0       _ilaenv_                   0044b4f0 f   lapack:ilaenv.obj
 0001:0004b6c0       _sisnan_                   0044c6c0 f   lapack:sisnan.obj
 0001:0004b6d0       _dorglq_                   0044c6d0 f   lapack:dorglq.obj
 0001:0004bbd0       _dgelqf_                   0044cbd0 f   lapack:dgelqf.obj
 0001:0004c000       _dormbr_                   0044d000 f   lapack:dormbr.obj
 0001:0004c6a0       _dlacpy_                   0044d6a0 f   lapack:dlacpy.obj
 0001:0004ca10       _dbdsqr_                   0044da10 f   lapack:dbdsqr.obj
 0001:0004e590       _dorgbr_                   0044f590 f   lapack:dorgbr.obj
 0001:0004ea90       _dgebrd_                   0044fa90 f   lapack:dgebrd.obj
 0001:0004f020       _dlaset_                   00450020 f   lapack:dlaset.obj
 0001:0004f340       _dlascl_                   00450340 f   lapack:dlascl.obj
 0001:0004fc70       _dlange_                   00450c70 f   lapack:dlange.obj
 0001:00050160       _dlamc3_                   00451160 f   lapack:dlamch.obj
 0001:00050170       _dlamc4_                   00451170 f   lapack:dlamch.obj
 0001:00050310       _dlamc5_                   00451310 f   lapack:dlamch.obj
 0001:00050530       _dlamc1_                   00451530 f   lapack:dlamch.obj
 0001:00050690       _dlamc2_                   00451690 f   lapack:dlamch.obj
 0001:00050a40       _dlamch_                   00451a40 f   lapack:dlamch.obj
 0001:00050cf0       _disnan_                   00451cf0 f   lapack:disnan.obj
 0001:00050d00       _dlarfb_                   00451d00 f   lapack:dlarfb.obj
 0001:00052b80       _dlarft_                   00453b80 f   lapack:dlarft.obj
 0001:000531f0       _dorg2r_                   004541f0 f   lapack:dorg2r.obj
 0001:00053480       _dgeqr2_                   00454480 f   lapack:dgeqr2.obj
 0001:00053620       _dlaswp_                   00454620 f   lapack:dlaswp.obj
 0001:00053ab0       _dgetf2_                   00454ab0 f   lapack:dgetf2.obj
 0001:00053d30       _dsytf2_                   00454d30 f   lapack:dsytf2.obj
 0001:000549e0       _dlasyf_                   004559e0 f   lapack:dlasyf.obj
 0001:00055ba0       _slarfb_                   00456ba0 f   lapack:slarfb.obj
 0001:00057a30       _slarft_                   00458a30 f   lapack:slarft.obj
 0001:000580b0       _sorg2r_                   004590b0 f   lapack:sorg2r.obj
 0001:00058340       _sgeqr2_                   00459340 f   lapack:sgeqr2.obj
 0001:000584e0       _slaswp_                   004594e0 f   lapack:slaswp.obj
 0001:00058a00       _sgetf2_                   00459a00 f   lapack:sgetf2.obj
 0001:00058c80       _ssytf2_                   00459c80 f   lapack:ssytf2.obj
 0001:00059a60       _slasyf_                   0045aa60 f   lapack:slasyf.obj
 0001:0005afb0       _sorgl2_                   0045bfb0 f   lapack:sorgl2.obj
 0001:0005b250       _sgelq2_                   0045c250 f   lapack:sgelq2.obj
 0001:0005b3f0       _sormlq_                   0045c3f0 f   lapack:sormlq.obj
 0001:0005baa0       _sormqr_                   0045caa0 f   lapack:sormqr.obj
 0001:0005c110       _slas2_                    0045d110 f   lapack:slas2.obj
 0001:0005c3a0       _slasv2_                   0045d3a0 f   lapack:slasv2.obj
 0001:0005c8a0       _slasr_                    0045d8a0 f   lapack:slasr.obj
 0001:0005e5e0       _slartg_                   0045f5e0 f   lapack:slartg.obj
 0001:0005e990       _slasq1_                   0045f990 f   lapack:slasq1.obj
 0001:0005ecd0       _sgebd2_                   0045fcd0 f   lapack:sgebd2.obj
 0001:0005f1a0       _slabrd_                   004601a0 f   lapack:slabrd.obj
 0001:00060170       _slassq_                   00461170 f   lapack:slassq.obj
 0001:00060240       _iparmq_                   00461240 f   lapack:iparmq.obj
 0001:00060380       _ieeeck_                   00461380 f   lapack:ieeeck.obj
 0001:00060530       _slaisnan_                 00461530 f   lapack:slaisnan.obj
 0001:00060550       _dorgl2_                   00461550 f   lapack:dorgl2.obj
 0001:000607f0       _dgelq2_                   004617f0 f   lapack:dgelq2.obj
 0001:00060980       _dormlq_                   00461980 f   lapack:dormlq.obj
 0001:00061020       _dormqr_                   00462020 f   lapack:dormqr.obj
 0001:00061690       _dlas2_                    00462690 f   lapack:dlas2.obj
 0001:00061870       _dlasv2_                   00462870 f   lapack:dlasv2.obj
 0001:00061ca0       _dlasr_                    00462ca0 f   lapack:dlasr.obj
 0001:00063700       _dlartg_                   00464700 f   lapack:dlartg.obj
 0001:00063a00       _dlasq1_                   00464a00 f   lapack:dlasq1.obj
 0001:00063cf0       _dgebd2_                   00464cf0 f   lapack:dgebd2.obj
 0001:000641c0       _dlabrd_                   004651c0 f   lapack:dlabrd.obj
 0001:00065190       _dlassq_                   00466190 f   lapack:dlassq.obj
 0001:00065230       _dlaisnan_                 00466230 f   lapack:dlaisnan.obj
 0001:00065250       _iladlc_                   00466250 f   lapack:iladlc.obj
 0001:000652f0       _iladlr_                   004662f0 f   lapack:iladlr.obj
 0001:00065400       _dlarf_                    00466400 f   lapack:dlarf.obj
 0001:000655f0       _dlarfp_                   004665f0 f   lapack:dlarfp.obj
 0001:00065840       _ilaslc_                   00466840 f   lapack:ilaslc.obj
 0001:000658e0       _ilaslr_                   004668e0 f   lapack:ilaslr.obj
 0001:000659f0       _slarf_                    004669f0 f   lapack:slarf.obj
 0001:00065be0       _slarfp_                   00466be0 f   lapack:slarfp.obj
 0001:00065e70       _sorml2_                   00466e70 f   lapack:sorml2.obj
 0001:00066130       _sorm2r_                   00467130 f   lapack:sorm2r.obj
 0001:000663f0       _slasq2_                   004673f0 f   lapack:slasq2.obj
 0001:000672f0       _slasrt_                   004682f0 f   lapack:slasrt.obj
 0001:00067750       _slarfg_                   00468750 f   lapack:slarfg.obj
 0001:00067950       _dorml2_                   00468950 f   lapack:dorml2.obj
 0001:00067c20       _dorm2r_                   00468c20 f   lapack:dorm2r.obj
 0001:00067f00       _dlasq2_                   00468f00 f   lapack:dlasq2.obj
 0001:00068ca0       _dlasrt_                   00469ca0 f   lapack:dlasrt.obj
 0001:000690c0       _dlarfg_                   0046a0c0 f   lapack:dlarfg.obj
 0001:00069290       _dlapy2_                   0046a290 f   lapack:dlapy2.obj
 0001:00069310       _slapy2_                   0046a310 f   lapack:slapy2.obj
 0001:000693c0       _slasq3_                   0046a3c0 f   lapack:slasq3.obj
 0001:00069b40       _dlasq3_                   0046ab40 f   lapack:dlasq3.obj
 0001:0006a140       _slasq6_                   0046b140 f   lapack:slasq6.obj
 0001:0006a590       _slasq5_                   0046b590 f   lapack:slasq5.obj
 0001:0006aaa0       _slasq4_                   0046baa0 f   lapack:slasq4.obj
 0001:0006b650       _dlasq6_                   0046c650 f   lapack:dlasq6.obj
 0001:0006b990       _dlasq5_                   0046c990 f   lapack:dlasq5.obj
 0001:0006bd30       _dlasq4_                   0046cd30 f   lapack:dlasq4.obj
 0001:0006c6e0       _s_cat                     0046d6e0 f   libf2c:s_cat.obj
 0001:0006c800       _r_sign                    0046d800 f   libf2c:r_sign.obj
 0001:0006c830       _pow_dd                    0046d830 f   libf2c:pow_dd.obj
 0001:0006c850       _e_rsfe                    0046d850 f   libf2c:sfe.obj
 0001:0006c860       _c_sfe                     0046d860 f   libf2c:sfe.obj
 0001:0006c940       _e_wsfe                    0046d940 f   libf2c:sfe.obj
 0001:0006d290       _do_fio                    0046e290 f   libf2c:fmt.obj
 0001:0006d5f0       _en_fio                    0046e5f0 f   libf2c:fmt.obj
 0001:0006d610       _fmt_bg                    0046e610 f   libf2c:fmt.obj
 0001:0006d6b0       _pars_f                    0046e6b0 f   libf2c:fmt.obj
 0001:0006d6e0       _x_wSL                     0046e6e0 f   libf2c:wsfe.obj
 0001:0006d7b0       _s_wsfe                    0046e7b0 f   libf2c:wsfe.obj
 0001:0006d910       _pow_ri                    0046e910 f   libf2c:pow_ri.obj
 0001:0006d950       _s_cmp                     0046e950 f   libf2c:s_cmp.obj
 0001:0006d9e0       _s_copy                    0046e9e0 f   libf2c:s_copy.obj
 0001:0006da80       _d_sign                    0046ea80 f   libf2c:d_sign.obj
 0001:0006dab0       _pow_di                    0046eab0 f   libf2c:pow_di.obj
 0001:0006daf0       _i_nint                    0046eaf0 f   libf2c:i_nint.obj
 0001:0006db40       _F77_aloc                  0046eb40 f   libf2c:f77_aloc.obj
 0001:0006db90       _f__canseek                0046eb90 f   libf2c:err.obj
 0001:0006dba0       _f__fatal                  0046eba0 f   libf2c:err.obj
 0001:0006dd20       _f_init                    0046ed20 f   libf2c:err.obj
 0001:0006dda0       _f__nowreading             0046eda0 f   libf2c:err.obj
 0001:0006de50       _f__nowwriting             0046ee50 f   libf2c:err.obj
 0001:0006df30       _err__fl                   0046ef30 f   libf2c:err.obj
 0001:0006e000       _f__putbuf                 0046f000 f   libf2c:open.obj
 0001:0006e0b0       _x_putc                    0046f0b0 f   libf2c:open.obj
 0001:0006e140       _f_open                    0046f140 f   libf2c:open.obj
 0001:0006e640       _fk_open                   0046f640 f   libf2c:open.obj
 0001:0006e700       _sig_die                   0046f700 f   libf2c:sig_die.obj
 0001:0006ed00       _wrt_L                     0046fd00 f   libf2c:wrtfmt.obj
 0001:0006eef0       _w_ed                      0046fef0 f   libf2c:wrtfmt.obj
 0001:0006f0e0       _w_ned                     004700e0 f   libf2c:wrtfmt.obj
 0001:0006f1b0       _exit_                     004701b0 f   libf2c:exit_.obj
 0001:0006f1c0       _g_char                    004701c0 f   libf2c:util.obj
 0001:0006f200       _b_char                    00470200 f   libf2c:util.obj
 0001:0006f240       _f_clos                    00470240 f   libf2c:close.obj
 0001:0006f2e0       _f_exit                    004702e0 f   libf2c:close.obj
 0001:0006f320       _flush_                    00470320 f   libf2c:close.obj
 0001:0006f360       _f__icvt                   00470360 f   libf2c:fmtlib.obj
 0001:0006f3e0       _wrt_E                     004703e0 f   libf2c:wref.obj
 0001:0006f7f0       _wrt_F                     004707f0 f   libf2c:wref.obj
 0001:0006fa40       _t_runc                    00470a40 f   libf2c:endfile.obj
 0001:0006fc40       _f_end                     00470c40 f   libf2c:endfile.obj
 0001:0006fd30       _WinMain@16                00470d30 f   mfcs90d:appmodul.obj
 0001:0006fd50       ?AfxInitialize@@YGHHK@Z    00470d50 f   mfcs90d:appmodul.obj
 0001:0006fda6       __snprintf_s               00470da6 f   msvcrtd:MSVCR90D.dll
 0001:0006fdac       __errno                    00470dac f   msvcrtd:MSVCR90D.dll
 0001:0006fdb2       __CxxThrowException@8      00470db2 f   msvcrtd:MSVCR90D.dll
 0001:0006fdb8       __CrtDbgReport             00470db8 f   msvcrtd:MSVCR90D.dll
 0001:0006fdbe       _strcpy                    00470dbe f   msvcrtd:MSVCR90D.dll
 0001:0006fdc4       _wcscpy                    00470dc4 f   msvcrtd:MSVCR90D.dll
 0001:0006fdca       __vsnprintf_s              00470dca f   msvcrtd:MSVCR90D.dll
 0001:0006fdd0       __vsnwprintf_s             00470dd0 f   msvcrtd:MSVCR90D.dll
 0001:0006fdd6       __snwprintf_s              00470dd6 f   msvcrtd:MSVCR90D.dll
 0001:0006fddc       _wcscpy_s                  00470ddc f   msvcrtd:MSVCR90D.dll
 0001:0006fde2       _wcsncpy_s                 00470de2 f   msvcrtd:MSVCR90D.dll
 0001:0006fde8       _strcpy_s                  00470de8 f   msvcrtd:MSVCR90D.dll
 0001:0006fdee       _calloc                    00470dee f   msvcrtd:MSVCR90D.dll
 0001:0006fdf4       __recalloc                 00470df4 f   msvcrtd:MSVCR90D.dll
 0001:0006fe00       __allmul                   00470e00 f   msvcrtd:llmul.obj
 0001:0006fe40       __alldiv                   00470e40 f   msvcrtd:lldiv.obj
 0001:0006feea       __time64                   00470eea f   msvcrtd:MSVCR90D.dll
 0001:0006fef0       __mktime64                 00470ef0 f   msvcrtd:MSVCR90D.dll
 0001:0006fef6       __gmtime64_s               00470ef6 f   msvcrtd:MSVCR90D.dll
 0001:0006ff00       __aullshr                  00470f00 f   msvcrtd:ullshr.obj
 0001:0006ff20       __allshl                   00470f20 f   msvcrtd:llshl.obj
 0001:0006ff40       _memcmp                    00470f40 f   msvcrtd:MSVCR90D.dll
 0001:0006ff46       __wcsicmp                  00470f46 f   msvcrtd:MSVCR90D.dll
 0001:0006ff4c       _memmove_s                 00470f4c f   msvcrtd:MSVCR90D.dll
 0001:0006ff52       _wcslen                    00470f52 f   msvcrtd:MSVCR90D.dll
 0001:0006ff58       _printf                    00470f58 f   msvcrtd:MSVCR90D.dll
 0001:0006ff60       __chkstk                   00470f60 f   msvcrtd:chkstk.obj
 0001:0006ff60       __alloca_probe             00470f60     msvcrtd:chkstk.obj
 0001:0006ff8c       __CIlog                    00470f8c f   msvcrtd:MSVCR90D.dll
 0001:0006ff92       __CIpow                    00470f92 f   msvcrtd:MSVCR90D.dll
 0001:0006ff98       _floor                     00470f98 f   msvcrtd:MSVCR90D.dll
 0001:0006ff9e       _perror                    00470f9e f   msvcrtd:MSVCR90D.dll
 0001:0006ffa4       _fseek                     00470fa4 f   msvcrtd:MSVCR90D.dll
 0001:0006ffaa       _freopen                   00470faa f   msvcrtd:MSVCR90D.dll
 0001:0006ffb0       _ftell                     00470fb0 f   msvcrtd:MSVCR90D.dll
 0001:0006ffb6       _putc                      00470fb6 f   msvcrtd:MSVCR90D.dll
 0001:0006ffbc       _fputs                     00470fbc f   msvcrtd:MSVCR90D.dll
 0001:0006ffc2       _rewind                    00470fc2 f   msvcrtd:MSVCR90D.dll
 0001:0006ffc8       _tmpfile                   00470fc8 f   msvcrtd:MSVCR90D.dll
 0001:0006ffce       _strncmp                   00470fce f   msvcrtd:MSVCR90D.dll
 0001:0006ffd4       _abort                     00470fd4 f   msvcrtd:MSVCR90D.dll
 0001:0006ffda       _signal                    00470fda f   msvcrtd:MSVCR90D.dll
 0001:0006ffe0       _remove                    00470fe0 f   msvcrtd:MSVCR90D.dll
 0001:0006ffe6       _atoi                      00470fe6 f   msvcrtd:MSVCR90D.dll
 0001:0006ffec       _fread                     00470fec f   msvcrtd:MSVCR90D.dll
 0001:0006fff2       __setmbcp                  00470ff2 f   msvcrtd:MSVCR90D.dll
 0001:0006fff8       _RaiseException@16         00470ff8 f   kernel32:KERNEL32.dll
 0001:0006fffe       _SetEvent@4                00470ffe f   kernel32:KERNEL32.dll
 0001:00070004       _OpenEventA@12             00471004 f   kernel32:KERNEL32.dll
 0001:0007000a       _OutputDebugStringA@4      0047100a f   kernel32:KERNEL32.dll
 0001:00070010       _OutputDebugStringW@4      00471010 f   kernel32:KERNEL32.dll
 0001:00070016       _MultiByteToWideChar@24    00471016 f   kernel32:KERNEL32.dll
 0001:0007001c       _lstrlenA@4                0047101c f   kernel32:KERNEL32.dll
 0001:00070022       _MulDiv@12                 00471022 f   kernel32:KERNEL32.dll
 0001:00070028       _FileTimeToSystemTime@8    00471028 f   kernel32:KERNEL32.dll
 0001:0007002e       _FileTimeToLocalFileTime@8 0047102e f   kernel32:KERNEL32.dll
 0001:00070034       _LocalFileTimeToFileTime@8 00471034 f   kernel32:KERNEL32.dll
 0001:0007003a       _VirtualAlloc@16           0047103a f   kernel32:KERNEL32.dll
 0001:00070040       _UnmapViewOfFile@4         00471040 f   kernel32:KERNEL32.dll
 0001:00070046       _GetSystemInfo@4           00471046 f   kernel32:KERNEL32.dll
 0001:0007004c       _MapViewOfFile@20          0047104c f   kernel32:KERNEL32.dll
 0001:00070052       _CreateFileMappingA@24     00471052 f   kernel32:KERNEL32.dll
 0001:00070058       _GetCurrentThread@0        00471058 f   kernel32:KERNEL32.dll
 0001:0007005e       _OpenFileMappingA@12       0047105e f   kernel32:KERNEL32.dll
 0001:00070064       _InterlockedIncrement@4    00471064 f   kernel32:KERNEL32.dll
 0001:0007006a       _InterlockedDecrement@4    0047106a f   kernel32:KERNEL32.dll
 0001:00070070       _GetModuleFileNameW@12     00471070 f   kernel32:KERNEL32.dll
 0001:00070076       _CopyRect@8                00471076 f   user32:USER32.dll
 0001:0007007c       _IsRectEmpty@4             0047107c f   user32:USER32.dll
 0001:00070082       _PtInRect@12               00471082 f   user32:USER32.dll
 0001:00070088       _SetRect@20                00471088 f   user32:USER32.dll
 0001:0007008e       _SetRectEmpty@4            0047108e f   user32:USER32.dll
 0001:00070094       _EqualRect@8               00471094 f   user32:USER32.dll
 0001:0007009a       _InflateRect@12            0047109a f   user32:USER32.dll
 0001:000700a0       _OffsetRect@12             004710a0 f   user32:USER32.dll
 0001:000700a6       _IntersectRect@12          004710a6 f   user32:USER32.dll
 0001:000700ac       _UnionRect@12              004710ac f   user32:USER32.dll
 0001:000700b2       _SubtractRect@12           004710b2 f   user32:USER32.dll
 0001:000700b8       _SetThreadToken@8          004710b8 f   advapi32:ADVAPI32.dll
 0001:000700be       _RevertToSelf@0            004710be f   advapi32:ADVAPI32.dll
 0001:000700c4       _OpenThreadToken@16        004710c4 f   advapi32:ADVAPI32.dll
 0001:000700ca       __access                   004710ca f   MSVCRT:MSVCR90.dll
 0001:000700d0       _sscal_                    004710d0 f   blas:sscal.obj
 0001:00070200       _sgemv_                    00471200 f   blas:sgemv.obj
 0001:00070980       _sdot_                     00471980 f   blas:sdot.obj
 0001:00070bd0       _dscal_                    00471bd0 f   blas:dscal.obj
 0001:00070d00       _dgemv_                    00471d00 f   blas:dgemv.obj
 0001:00071470       _ddot_                     00472470 f   blas:ddot.obj
 0001:00071660       _dtrsm_                    00472660 f   blas:dtrsm.obj
 0001:00072980       _dsyrk_                    00473980 f   blas:dsyrk.obj
 0001:00073460       _dger_                     00474460 f   blas:dger.obj
 0001:00073790       _dswap_                    00474790 f   blas:dswap.obj
 0001:00073990       _strsm_                    00474990 f   blas:strsm.obj
 0001:00074d70       _ssyrk_                    00475d70 f   blas:ssyrk.obj
 0001:00075880       _sger_                     00476880 f   blas:sger.obj
 0001:00075bb0       _sswap_                    00476bb0 f   blas:sswap.obj
 0001:00075e20       _srot_                     00476e20 f   blas:srot.obj
 0001:00076130       _drot_                     00477130 f   blas:drot.obj
 0001:000763f0       _dtrmm_                    004773f0 f   blas:dtrmm.obj
 0001:000774a0       _dcopy_                    004784a0 f   blas:dcopy.obj
 0001:00077670       _dtrmv_                    00478670 f   blas:dtrmv.obj
 0001:00078170       _idamax_                   00479170 f   blas:idamax.obj
 0001:00078400       _dsyr_                     00479400 f   blas:dsyr.obj
 0001:000789b0       _strmm_                    004799b0 f   blas:strmm.obj
 0001:00079b10       _scopy_                    0047ab10 f   blas:scopy.obj
 0001:00079ce0       _strmv_                    0047ace0 f   blas:strmv.obj
 0001:0007a8a0       _isamax_                   0047b8a0 f   blas:isamax.obj
 0001:0007acb0       _ssyr_                     0047bcb0 f   blas:ssyr.obj
 0001:0007b230       _dnrm2_                    0047c230 f   blas:dnrm2.obj
 0001:0007b310       _snrm2_                    0047c310 f   blas:snrm2.obj
 0001:0007b43a       ?AfxWinMain@@YGHPAUHINSTANCE__@@0PADH@Z 0047c43a f   mfc90d:mfc90d.dll
 0001:0007b440       ?AfxGetModuleState@@YGPAVAFX_MODULE_STATE@@XZ 0047c440 f   mfc90d:mfc90d.dll
 0002:00000000       ___xc_a                    0049b000     msvcrtd:cinitexe.obj
 0002:000005bc       ___xc_z                    0049b5bc     msvcrtd:cinitexe.obj
 0002:000006c0       ___xi_a                    0049b6c0     msvcrtd:cinitexe.obj
 0002:00000ad0       ___xi_z                    0049bad0     msvcrtd:cinitexe.obj
 0002:00001204       ?_Min@?$AtlLimits@H@ATL@@2HB 0049c204     APTMotor.obj
 0002:00001208       ?_Max@?$AtlLimits@H@ATL@@2HB 0049c208     APTMotor.obj
 0002:0000120c       ?_Min@?$AtlLimits@I@ATL@@2IB 0049c20c     APTMotor.obj
 0002:00001210       ?_Max@?$AtlLimits@I@ATL@@2IB 0049c210     APTMotor.obj
 0002:00001214       ?_Min@?$AtlLimits@J@ATL@@2JB 0049c214     APTMotor.obj
 0002:00001218       ?_Max@?$AtlLimits@J@ATL@@2JB 0049c218     APTMotor.obj
 0002:0000121c       ?_Min@?$AtlLimits@K@ATL@@2KB 0049c21c     APTMotor.obj
 0002:00001220       ?_Max@?$AtlLimits@K@ATL@@2KB 0049c220     APTMotor.obj
 0002:00001228       ?_Min@?$AtlLimits@_J@ATL@@2_JB 0049c228     APTMotor.obj
 0002:00001238       ?_Max@?$AtlLimits@_J@ATL@@2_JB 0049c238     APTMotor.obj
 0002:00001248       ?_Min@?$AtlLimits@_K@ATL@@2_KB 0049c248     APTMotor.obj
 0002:00001258       ?_Max@?$AtlLimits@_K@ATL@@2_KB 0049c258     APTMotor.obj
 0002:00001264       ?VT@?$CVarTypeInfo@D@ATL@@2GB 0049c264     APTMotor.obj
 0002:00001268       ?pmField@?$CVarTypeInfo@D@ATL@@2QQtagVARIANT@@DQ3@ 0049c268     APTMotor.obj
 0002:0000126c       ?VT@?$CVarTypeInfo@E@ATL@@2GB 0049c26c     APTMotor.obj
 0002:00001270       ?pmField@?$CVarTypeInfo@E@ATL@@2QQtagVARIANT@@EQ3@ 0049c270     APTMotor.obj
 0002:00001274       ?VT@?$CVarTypeInfo@PAD@ATL@@2GB 0049c274     APTMotor.obj
 0002:00001278       ?pmField@?$CVarTypeInfo@PAD@ATL@@2QQtagVARIANT@@PADQ3@ 0049c278     APTMotor.obj
 0002:0000127c       ?VT@?$CVarTypeInfo@PAE@ATL@@2GB 0049c27c     APTMotor.obj
 0002:00001280       ?pmField@?$CVarTypeInfo@PAE@ATL@@2QQtagVARIANT@@PAEQ3@ 0049c280     APTMotor.obj
 0002:00001284       ?VT@?$CVarTypeInfo@F@ATL@@2GB 0049c284     APTMotor.obj
 0002:00001288       ?pmField@?$CVarTypeInfo@F@ATL@@2QQtagVARIANT@@FQ3@ 0049c288     APTMotor.obj
 0002:0000128c       ?VT@?$CVarTypeInfo@PAF@ATL@@2GB 0049c28c     APTMotor.obj
 0002:00001290       ?pmField@?$CVarTypeInfo@PAF@ATL@@2QQtagVARIANT@@PAFQ3@ 0049c290     APTMotor.obj
 0002:00001294       ?VT@?$CVarTypeInfo@G@ATL@@2GB 0049c294     APTMotor.obj
 0002:00001298       ?pmField@?$CVarTypeInfo@G@ATL@@2QQtagVARIANT@@GQ3@ 0049c298     APTMotor.obj
 0002:0000129c       ?VT@?$CVarTypeInfo@PAG@ATL@@2GB 0049c29c     APTMotor.obj
 0002:000012a0       ?pmField@?$CVarTypeInfo@PAG@ATL@@2QQtagVARIANT@@PAGQ3@ 0049c2a0     APTMotor.obj
 0002:000012a4       ?VT@?$CVarTypeInfo@H@ATL@@2GB 0049c2a4     APTMotor.obj
 0002:000012a8       ?pmField@?$CVarTypeInfo@H@ATL@@2QQtagVARIANT@@HQ3@ 0049c2a8     APTMotor.obj
 0002:000012ac       ?VT@?$CVarTypeInfo@PAH@ATL@@2GB 0049c2ac     APTMotor.obj
 0002:000012b0       ?pmField@?$CVarTypeInfo@PAH@ATL@@2QQtagVARIANT@@PAHQ3@ 0049c2b0     APTMotor.obj
 0002:000012b4       ?VT@?$CVarTypeInfo@I@ATL@@2GB 0049c2b4     APTMotor.obj
 0002:000012b8       ?pmField@?$CVarTypeInfo@I@ATL@@2QQtagVARIANT@@IQ3@ 0049c2b8     APTMotor.obj
 0002:000012bc       ?VT@?$CVarTypeInfo@PAI@ATL@@2GB 0049c2bc     APTMotor.obj
 0002:000012c0       ?pmField@?$CVarTypeInfo@PAI@ATL@@2QQtagVARIANT@@PAIQ3@ 0049c2c0     APTMotor.obj
 0002:000012c4       ?VT@?$CVarTypeInfo@J@ATL@@2GB 0049c2c4     APTMotor.obj
 0002:000012c8       ?pmField@?$CVarTypeInfo@J@ATL@@2QQtagVARIANT@@JQ3@ 0049c2c8     APTMotor.obj
 0002:000012cc       ?VT@?$CVarTypeInfo@PAJ@ATL@@2GB 0049c2cc     APTMotor.obj
 0002:000012d0       ?pmField@?$CVarTypeInfo@PAJ@ATL@@2QQtagVARIANT@@PAJQ3@ 0049c2d0     APTMotor.obj
 0002:000012d4       ?VT@?$CVarTypeInfo@K@ATL@@2GB 0049c2d4     APTMotor.obj
 0002:000012d8       ?pmField@?$CVarTypeInfo@K@ATL@@2QQtagVARIANT@@KQ3@ 0049c2d8     APTMotor.obj
 0002:000012dc       ?VT@?$CVarTypeInfo@PAK@ATL@@2GB 0049c2dc     APTMotor.obj
 0002:000012e0       ?pmField@?$CVarTypeInfo@PAK@ATL@@2QQtagVARIANT@@PAKQ3@ 0049c2e0     APTMotor.obj
 0002:000012e4       ?VT@?$CVarTypeInfo@_J@ATL@@2GB 0049c2e4     APTMotor.obj
 0002:000012e8       ?pmField@?$CVarTypeInfo@_J@ATL@@2QQtagVARIANT@@_JQ3@ 0049c2e8     APTMotor.obj
 0002:000012ec       ?VT@?$CVarTypeInfo@PA_J@ATL@@2GB 0049c2ec     APTMotor.obj
 0002:000012f0       ?pmField@?$CVarTypeInfo@PA_J@ATL@@2QQtagVARIANT@@PA_JQ3@ 0049c2f0     APTMotor.obj
 0002:000012f4       ?VT@?$CVarTypeInfo@_K@ATL@@2GB 0049c2f4     APTMotor.obj
 0002:000012f8       ?pmField@?$CVarTypeInfo@_K@ATL@@2QQtagVARIANT@@_KQ3@ 0049c2f8     APTMotor.obj
 0002:000012fc       ?VT@?$CVarTypeInfo@PA_K@ATL@@2GB 0049c2fc     APTMotor.obj
 0002:00001300       ?pmField@?$CVarTypeInfo@PA_K@ATL@@2QQtagVARIANT@@PA_KQ3@ 0049c300     APTMotor.obj
 0002:00001304       ?VT@?$CVarTypeInfo@M@ATL@@2GB 0049c304     APTMotor.obj
 0002:00001308       ?pmField@?$CVarTypeInfo@M@ATL@@2QQtagVARIANT@@MQ3@ 0049c308     APTMotor.obj
 0002:0000130c       ?VT@?$CVarTypeInfo@PAM@ATL@@2GB 0049c30c     APTMotor.obj
 0002:00001310       ?pmField@?$CVarTypeInfo@PAM@ATL@@2QQtagVARIANT@@PAMQ3@ 0049c310     APTMotor.obj
 0002:00001314       ?VT@?$CVarTypeInfo@N@ATL@@2GB 0049c314     APTMotor.obj
 0002:00001318       ?pmField@?$CVarTypeInfo@N@ATL@@2QQtagVARIANT@@NQ3@ 0049c318     APTMotor.obj
 0002:0000131c       ?VT@?$CVarTypeInfo@PAN@ATL@@2GB 0049c31c     APTMotor.obj
 0002:00001320       ?pmField@?$CVarTypeInfo@PAN@ATL@@2QQtagVARIANT@@PANQ3@ 0049c320     APTMotor.obj
 0002:00001324       ?VT@?$CVarTypeInfo@UtagVARIANT@@@ATL@@2GB 0049c324     APTMotor.obj
 0002:00001328       ?VT@?$CVarTypeInfo@PA_W@ATL@@2GB 0049c328     APTMotor.obj
 0002:0000132c       ?pmField@?$CVarTypeInfo@PA_W@ATL@@2QQtagVARIANT@@PA_WQ3@ 0049c32c     APTMotor.obj
 0002:00001330       ?VT@?$CVarTypeInfo@PAPA_W@ATL@@2GB 0049c330     APTMotor.obj
 0002:00001334       ?pmField@?$CVarTypeInfo@PAPA_W@ATL@@2QQtagVARIANT@@PAPA_WQ3@ 0049c334     APTMotor.obj
 0002:00001338       ?VT@?$CVarTypeInfo@PAUIUnknown@@@ATL@@2GB 0049c338     APTMotor.obj
 0002:0000133c       ?pmField@?$CVarTypeInfo@PAUIUnknown@@@ATL@@2QQtagVARIANT@@PAUIUnknown@@Q3@ 0049c33c     APTMotor.obj
 0002:00001340       ?VT@?$CVarTypeInfo@PAPAUIUnknown@@@ATL@@2GB 0049c340     APTMotor.obj
 0002:00001344       ?pmField@?$CVarTypeInfo@PAPAUIUnknown@@@ATL@@2QQtagVARIANT@@PAPAUIUnknown@@Q3@ 0049c344     APTMotor.obj
 0002:00001348       ?VT@?$CVarTypeInfo@PAUIDispatch@@@ATL@@2GB 0049c348     APTMotor.obj
 0002:0000134c       ?pmField@?$CVarTypeInfo@PAUIDispatch@@@ATL@@2QQtagVARIANT@@PAUIDispatch@@Q3@ 0049c34c     APTMotor.obj
 0002:00001350       ?VT@?$CVarTypeInfo@PAPAUIDispatch@@@ATL@@2GB 0049c350     APTMotor.obj
 0002:00001354       ?pmField@?$CVarTypeInfo@PAPAUIDispatch@@@ATL@@2QQtagVARIANT@@PAPAUIDispatch@@Q3@ 0049c354     APTMotor.obj
 0002:00001358       ?VT@?$CVarTypeInfo@TtagCY@@@ATL@@2GB 0049c358     APTMotor.obj
 0002:0000135c       ?pmField@?$CVarTypeInfo@TtagCY@@@ATL@@2QQtagVARIANT@@TtagCY@@Q3@ 0049c35c     APTMotor.obj
 0002:00001360       ?VT@?$CVarTypeInfo@PATtagCY@@@ATL@@2GB 0049c360     APTMotor.obj
 0002:00001364       ?pmField@?$CVarTypeInfo@PATtagCY@@@ATL@@2QQtagVARIANT@@PATtagCY@@Q3@ 0049c364     APTMotor.obj
 0002:00001368       ?c_bIsMFCDLLTraits@?$_MFCDLLTraitsCheck@DV?$StrTraitMFC_DLL@DV?$ChTraitsCRT@D@ATL@@@@@_CSTRING_IMPL_@ATL@@2_NB 0049c368     APTMotor.obj
 0002:00001369       ?c_bIsMFCDLLTraits@?$_MFCDLLTraitsCheck@_WV?$StrTraitMFC_DLL@_WV?$ChTraitsCRT@_W@ATL@@@@@_CSTRING_IMPL_@ATL@@2_NB 0049c369     APTMotor.obj
 0002:0000136c       ?generic@CArchiveException@@2HB 0049c36c     APTMotor.obj
 0002:00001370       ?generic@CFileException@@2HB 0049c370     APTMotor.obj
 0002:00001378       ?Millisecond@CFileTime@ATL@@2_KB 0049c378     APTMotor.obj
 0002:00001388       ?Second@CFileTime@ATL@@2_KB 0049c388     APTMotor.obj
 0002:00001398       ?Minute@CFileTime@ATL@@2_KB 0049c398     APTMotor.obj
 0002:000013a8       ?Hour@CFileTime@ATL@@2_KB  0049c3a8     APTMotor.obj
 0002:000013b8       ?Day@CFileTime@ATL@@2_KB   0049c3b8     APTMotor.obj
 0002:000013c8       ?Week@CFileTime@ATL@@2_KB  0049c3c8     APTMotor.obj
 0002:000013d4       ?szInvalidDateTime@ATL@@3QBDB 0049c3d4     APTMotor.obj
 0002:000013d8       ?szInvalidDateTimeSpan@ATL@@3QBDB 0049c3d8     APTMotor.obj
 0002:000013dc       ?CLSID_WinFormsControl@@3U_GUID@@B 0049c3dc     APTMotor.obj
 0002:000013f0       ?classCMgmotorctrl1@CMgmotorctrl1@@2UCRuntimeClass@@B 0049c3f0     APTMotor.obj
 0002:0000141c       ??_7CMgmotorctrl1@@6B@     0049c41c     APTMotor.obj
 0002:000015a4       ?clsid@?1??GetClsid@CMgmotorctrl1@@QAEABU_GUID@@XZ@4U3@B 0049c5a4     APTMotor.obj
 0002:000015bc       ??_7Thank_you@Define_the_symbol__ATL_MIXED@@6B@ 0049c5bc     APTMotor.obj
 0002:00001bc0       ?classAPT_system@APT_system@@2UCRuntimeClass@@B 0049cbc0     APTSystem.obj
 0002:00001bec       ??_7APT_system@@6B@        0049cbec     APTSystem.obj
 0002:00001d74       ?clsid@?1??GetClsid@APT_system@@QAEABU_GUID@@XZ@4U3@B 0049cd74     APTSystem.obj
 0002:0000297c       ?classDisplayDialog@DisplayDialog@@2UCRuntimeClass@@B 0049d97c     DisplayDialog.obj
 0002:000029a4       ??_7DisplayDialog@@6B@     0049d9a4     DisplayDialog.obj
 0002:00003180       ?classCMainFrame@CMainFrame@@2UCRuntimeClass@@B 0049e180     MainFrm.obj
 0002:000031ac       ??_7CMainFrame@@6B@        0049e1ac     MainFrm.obj
 0002:00003994       ??_7COctopusApp@@6B@       0049e994     Octopus.obj
 0002:00004218       __real@00000000            0049f218     Octopus_LED.obj
 0002:00004224       ??_7Octopus_LED@@6B@       0049f224     Octopus_LED.obj
 0002:00004580       __real@0000000000000000    0049f580     Octopus_LED.obj
 0002:00004590       __real@4090000000000000    0049f590     Octopus_LED.obj
 0002:000045a0       __real@4059000000000000    0049f5a0     Octopus_LED.obj
 0002:00004e24       ?collate@?$_Locbase@H@std@@2HB 0049fe24     OctopusCameraDisplay.obj
 0002:00004e28       ?ctype@?$_Locbase@H@std@@2HB 0049fe28     OctopusCameraDisplay.obj
 0002:00004e2c       ?monetary@?$_Locbase@H@std@@2HB 0049fe2c     OctopusCameraDisplay.obj
 0002:00004e30       ?numeric@?$_Locbase@H@std@@2HB 0049fe30     OctopusCameraDisplay.obj
 0002:00004e34       ?time@?$_Locbase@H@std@@2HB 0049fe34     OctopusCameraDisplay.obj
 0002:00004e38       ?messages@?$_Locbase@H@std@@2HB 0049fe38     OctopusCameraDisplay.obj
 0002:00004e3c       ?all@?$_Locbase@H@std@@2HB 0049fe3c     OctopusCameraDisplay.obj
 0002:00004e40       ?none@?$_Locbase@H@std@@2HB 0049fe40     OctopusCameraDisplay.obj
 0002:00004e44       ?skipws@?$_Iosb@H@std@@2W4_Fmtflags@12@B 0049fe44     OctopusCameraDisplay.obj
 0002:00004e48       ?unitbuf@?$_Iosb@H@std@@2W4_Fmtflags@12@B 0049fe48     OctopusCameraDisplay.obj
 0002:00004e4c       ?uppercase@?$_Iosb@H@std@@2W4_Fmtflags@12@B 0049fe4c     OctopusCameraDisplay.obj
 0002:00004e50       ?showbase@?$_Iosb@H@std@@2W4_Fmtflags@12@B 0049fe50     OctopusCameraDisplay.obj
 0002:00004e54       ?showpoint@?$_Iosb@H@std@@2W4_Fmtflags@12@B 0049fe54     OctopusCameraDisplay.obj
 0002:00004e58       ?showpos@?$_Iosb@H@std@@2W4_Fmtflags@12@B 0049fe58     OctopusCameraDisplay.obj
 0002:00004e5c       ?left@?$_Iosb@H@std@@2W4_Fmtflags@12@B 0049fe5c     OctopusCameraDisplay.obj
 0002:00004e60       ?right@?$_Iosb@H@std@@2W4_Fmtflags@12@B 0049fe60     OctopusCameraDisplay.obj
 0002:00004e64       ?internal@?$_Iosb@H@std@@2W4_Fmtflags@12@B 0049fe64     OctopusCameraDisplay.obj
 0002:00004e68       ?dec@?$_Iosb@H@std@@2W4_Fmtflags@12@B 0049fe68     OctopusCameraDisplay.obj
 0002:00004e6c       ?oct@?$_Iosb@H@std@@2W4_Fmtflags@12@B 0049fe6c     OctopusCameraDisplay.obj
 0002:00004e70       ?hex@?$_Iosb@H@std@@2W4_Fmtflags@12@B 0049fe70     OctopusCameraDisplay.obj
 0002:00004e74       ?scientific@?$_Iosb@H@std@@2W4_Fmtflags@12@B 0049fe74     OctopusCameraDisplay.obj
 0002:00004e78       ?fixed@?$_Iosb@H@std@@2W4_Fmtflags@12@B 0049fe78     OctopusCameraDisplay.obj
 0002:00004e7c       ?hexfloat@?$_Iosb@H@std@@2W4_Fmtflags@12@B 0049fe7c     OctopusCameraDisplay.obj
 0002:00004e80       ?boolalpha@?$_Iosb@H@std@@2W4_Fmtflags@12@B 0049fe80     OctopusCameraDisplay.obj
 0002:00004e84       ?_Stdio@?$_Iosb@H@std@@2W4_Fmtflags@12@B 0049fe84     OctopusCameraDisplay.obj
 0002:00004e88       ?adjustfield@?$_Iosb@H@std@@2W4_Fmtflags@12@B 0049fe88     OctopusCameraDisplay.obj
 0002:00004e8c       ?basefield@?$_Iosb@H@std@@2W4_Fmtflags@12@B 0049fe8c     OctopusCameraDisplay.obj
 0002:00004e90       ?floatfield@?$_Iosb@H@std@@2W4_Fmtflags@12@B 0049fe90     OctopusCameraDisplay.obj
 0002:00004e94       ?goodbit@?$_Iosb@H@std@@2W4_Iostate@12@B 0049fe94     OctopusCameraDisplay.obj
 0002:00004e98       ?eofbit@?$_Iosb@H@std@@2W4_Iostate@12@B 0049fe98     OctopusCameraDisplay.obj
 0002:00004e9c       ?failbit@?$_Iosb@H@std@@2W4_Iostate@12@B 0049fe9c     OctopusCameraDisplay.obj
 0002:00004ea0       ?badbit@?$_Iosb@H@std@@2W4_Iostate@12@B 0049fea0     OctopusCameraDisplay.obj
 0002:00004ea4       ?_Hardfail@?$_Iosb@H@std@@2W4_Iostate@12@B 0049fea4     OctopusCameraDisplay.obj
 0002:00004ea8       ?in@?$_Iosb@H@std@@2W4_Openmode@12@B 0049fea8     OctopusCameraDisplay.obj
 0002:00004eac       ?out@?$_Iosb@H@std@@2W4_Openmode@12@B 0049feac     OctopusCameraDisplay.obj
 0002:00004eb0       ?ate@?$_Iosb@H@std@@2W4_Openmode@12@B 0049feb0     OctopusCameraDisplay.obj
 0002:00004eb4       ?app@?$_Iosb@H@std@@2W4_Openmode@12@B 0049feb4     OctopusCameraDisplay.obj
 0002:00004eb8       ?trunc@?$_Iosb@H@std@@2W4_Openmode@12@B 0049feb8     OctopusCameraDisplay.obj
 0002:00004ebc       ?_Nocreate@?$_Iosb@H@std@@2W4_Openmode@12@B 0049febc     OctopusCameraDisplay.obj
 0002:00004ec0       ?_Noreplace@?$_Iosb@H@std@@2W4_Openmode@12@B 0049fec0     OctopusCameraDisplay.obj
 0002:00004ec4       ?binary@?$_Iosb@H@std@@2W4_Openmode@12@B 0049fec4     OctopusCameraDisplay.obj
 0002:00004ec8       ?beg@?$_Iosb@H@std@@2W4_Seekdir@12@B 0049fec8     OctopusCameraDisplay.obj
 0002:00004ecc       ?cur@?$_Iosb@H@std@@2W4_Seekdir@12@B 0049fecc     OctopusCameraDisplay.obj
 0002:00004ed0       ?end@?$_Iosb@H@std@@2W4_Seekdir@12@B 0049fed0     OctopusCameraDisplay.obj
 0002:00004ed8       __real@3ff0000000000000    0049fed8     OctopusCameraDisplay.obj
 0002:00004ee8       __real@40efffe000000000    0049fee8     OctopusCameraDisplay.obj
 0002:00004ef8       __real@3fa999999999999a    0049fef8     OctopusCameraDisplay.obj
 0002:00004f0c       ??_7COctopusPictureDisplay@@6B@ 0049ff0c     OctopusCameraDisplay.obj
 0002:00005160       __real@402e000000000000    004a0160     OctopusCameraDisplay.obj
 0002:00005170       __real@4018000000000000    004a0170     OctopusCameraDisplay.obj
 0002:00005180       __real@3f50624dd2f1a9fc    004a0180     OctopusCameraDisplay.obj
 0002:00005190       __real@406fe00000000000    004a0190     OctopusCameraDisplay.obj
 0002:000051a0       __real@41dfffffffc00000    004a01a0     OctopusCameraDisplay.obj
 0002:000051b0       __real@3fef5c28f5c28f5c    004a01b0     OctopusCameraDisplay.obj
 0002:000051c0       __real@3fb999999999999a    004a01c0     OctopusCameraDisplay.obj
 0002:000051d0       __real@4014000000000000    004a01d0     OctopusCameraDisplay.obj
 0002:000051e0       __real@bfb999999999999a    004a01e0     OctopusCameraDisplay.obj
 0002:000051f0       __real@4034000000000000    004a01f0     OctopusCameraDisplay.obj
 0002:00005200       __real@4002d4fdf3b645a2    004a0200     OctopusCameraDisplay.obj
 0002:00005210       __real@4004000000000000    004a0210     OctopusCameraDisplay.obj
 0002:00005220       __real@4000000000000000    004a0220     OctopusCameraDisplay.obj
 0002:00005230       __real@3eb0c6f7a0b5ed8d    004a0230     OctopusCameraDisplay.obj
 0002:00005240       __real@3bc79ca10c924223    004a0240     OctopusCameraDisplay.obj
 0002:00005250       __real@3cd203af9ee75616    004a0250     OctopusCameraDisplay.obj
 0002:00005260       __real@40191eb851eb851f    004a0260     OctopusCameraDisplay.obj
 0002:00005270       __real@c000000000000000    004a0270     OctopusCameraDisplay.obj
 0002:00005280       __real@40dfffc000000000    004a0280     OctopusCameraDisplay.obj
 0002:00005290       __real@bfe0000000000000    004a0290     OctopusCameraDisplay.obj
 0002:00005e2c       ??_7COctopusCamera@@6B@    004a0e2c     OctopusCameraDlg.obj
 0002:00005fe8       __real@3f1a36e2eb1c432d    004a0fe8     OctopusCameraDlg.obj
 0002:00005ff8       __real@4024000000000000    004a0ff8     OctopusCameraDlg.obj
 0002:00006370       __real@c014000000000000    004a1370     OctopusCameraDlg.obj
 0002:00006380       __real@4020a8f5c28f5c29    004a1380     OctopusCameraDlg.obj
 0002:00006390       __real@4010000000000000    004a1390     OctopusCameraDlg.obj
 0002:000063a0       __real@4020000000000000    004a13a0     OctopusCameraDlg.obj
 0002:000069a4       ??_7COctopusGoodClock@@6B@ 004a19a4     OctopusClock.obj
 0002:000069b0       __real@408f400000000000    004a19b0     OctopusClock.obj
 0002:00006fb8       ?classCOctopusDoc@COctopusDoc@@2UCRuntimeClass@@B 004a1fb8     OctopusDoc.obj
 0002:00006fe4       ??_7COctopusDoc@@6B@       004a1fe4     OctopusDoc.obj
 0002:00007d0c       ??_7COctopusFocus@@6B@     004a2d0c     OctopusFocus.obj
 0002:00007ec8       __real@4067c00000000000    004a2ec8     OctopusFocus.obj
 0002:000086e0       __real@4069000000000000    004a36e0     OctopusGrating.obj
 0002:000086f4       ??_7COctopusGrating@@6B@   004a36f4     OctopusGrating.obj
 0002:000088b0       __real@4079000000000000    004a38b0     OctopusGrating.obj
 0002:000088c0       __real@3f747ae147ae147b    004a38c0     OctopusGrating.obj
 0002:000088d0       __real@3fe0000000000000    004a38d0     OctopusGrating.obj
 0002:00009264       ??_7OctopusLaser@@6B@      004a4264     OctopusLaser.obj
 0002:0000949c       __real@44800000            004a449c     OctopusLaser.obj
 0002:00009ac4       ??_7COctopusLasers@@6B@    004a4ac4     OctopusLasers.obj
 0002:0000ac78       __real@4045000000000000    004a5c78     OctopusObjectivePiezo.obj
 0002:0000ac8c       ??_7COctopusObjectivePiezo@@6B@ 004a5c8c     OctopusObjectivePiezo.obj
 0002:0000b68c       __real@40800000            004a668c     OctopusPolarizer.obj
 0002:0000b690       __real@424d3333            004a6690     OctopusPolarizer.obj
 0002:0000b694       __real@40a00000            004a6694     OctopusPolarizer.obj
 0002:0000b69c       ??_7COctopusPolarizer@@6B@ 004a669c     OctopusPolarizer.obj
 0002:0000b858       __real@4056800000000000    004a6858     OctopusPolarizer.obj
 0002:0000ba60       __real@bff0000000000000    004a6a60     OctopusPolarizer.obj
 0002:0000ba6c       __real@41a00000            004a6a6c     OctopusPolarizer.obj
 0002:0000ba70       __real@4076800000000000    004a6a70     OctopusPolarizer.obj
 0002:0000ba80       __real@40767ffbe76c8b44    004a6a80     OctopusPolarizer.obj
 0002:0000c3ec       ??_7COctopusScope@@6B@     004a73ec     OctopusScope.obj
 0002:0000c910       __real@40cd4c0000000000    004a7910     OctopusScope.obj
 0002:0000d3fc       ??_7COctopusScript@@6B@    004a83fc     OctopusScript.obj
 0002:0000d650       __real@4039000000000000    004a8650     OctopusScript.obj
 0002:0000d65c       __real@bf800000            004a865c     OctopusScript.obj
 0002:0000d660       __real@3f800000            004a8660     OctopusScript.obj
 0002:0000d664       __real@c1a00000            004a8664     OctopusScript.obj
 0002:0000d668       __real@c034000000000000    004a8668     OctopusScript.obj
 0002:0000df84       ??_7COctopusShutterAndWheel@@6B@ 004a8f84     OctopusShutter.obj
 0002:0000e218       __real@4062000000000000    004a9218     OctopusShutter.obj
 0002:0000e228       __real@3ff70a3d70a3d70a    004a9228     OctopusShutter.obj
 0002:0000ed84       ??_7COctopusStage545@@6B@  004a9d84     OctopusStage545.obj
 0002:0000ef40       __real@4028000000000000    004a9f40     OctopusStage545.obj
 0002:0000ef50       __real@4038f9999999999a    004a9f50     OctopusStage545.obj
 0002:0000ef60       __real@4029000000000000    004a9f60     OctopusStage545.obj
 0002:0000ef70       __real@40d86a0000000000    004a9f70     OctopusStage545.obj
 0002:0000f178       __real@3f847ae147ae147b    004aa178     OctopusStage545.obj
 0002:0000f188       __real@3fd0000000000000    004aa188     OctopusStage545.obj
 0002:0000fb10       ?classCOctopusView@COctopusView@@2UCRuntimeClass@@B 004aab10     OctopusView.obj
 0002:0000fca4       ??_7COctopusView@@6B@      004aaca4     OctopusView.obj
 0002:00010480       __real@3eaaaaab            004ab480     levmar:lm.obj
 0002:00010488       __real@3af357c2a0000000    004ab488     levmar:lm.obj
 0002:00010490       __real@ff7fffff            004ab490     levmar:lm.obj
 0002:00010494       ??_C@_0DB@IBGMFDOM@slevmar_der?$CI?$CJ?3?5memory?5allocation@ 004ab494     levmar:lm.obj
 0002:000104c8       __real@0704ec3c            004ab4c8     levmar:lm.obj
 0002:000104cc       __real@233877aa            004ab4cc     levmar:lm.obj
 0002:000104d0       __real@3a83126f            004ab4d0     levmar:lm.obj
 0002:000104d8       ??_C@_0JC@OFJLFOLC@No?5function?5specified?5for?5comput@ 004ab4d8     levmar:lm.obj
 0002:00010570       ??_C@_0FH@NCHMBDLE@slevmar_der?$CI?$CJ?3?5cannot?5solve?5a?5pr@ 004ab570     levmar:lm.obj
 0002:000105c8       __real@7f7fffff            004ab5c8     levmar:lm.obj
 0002:000105cc       ??_C@_0DB@PJHNBGDP@slevmar_dif?$CI?$CJ?3?5memory?5allocation@ 004ab5cc     levmar:lm.obj
 0002:00010600       __real@358637bd            004ab600     levmar:lm.obj
 0002:00010608       ??_C@_0FH@LHPFGAP@slevmar_dif?$CI?$CJ?3?5cannot?5solve?5a?5pr@ 004ab608     levmar:lm.obj
 0002:00010660       __real@3fd555555567a895    004ab660     levmar:lm.obj
 0002:00010668       __real@3af357c299a88ea7    004ab668     levmar:lm.obj
 0002:00010670       __real@ffefffffffffffff    004ab670     levmar:lm.obj
 0002:00010678       ??_C@_0DB@DLJEOGK@dlevmar_der?$CI?$CJ?3?5memory?5allocation@ 004ab678     levmar:lm.obj
 0002:000106b0       __real@38e09d8792fb4c4a    004ab6b0     levmar:lm.obj
 0002:000106b8       __real@3c670ef54646d497    004ab6b8     levmar:lm.obj
 0002:000106c0       ??_C@_0JC@IHDJELPJ@No?5function?5specified?5for?5comput@ 004ab6c0     levmar:lm.obj
 0002:00010758       ??_C@_0FH@PKBAEKLE@dlevmar_der?$CI?$CJ?3?5cannot?5solve?5a?5pr@ 004ab758     levmar:lm.obj
 0002:000107b0       __real@7fefffffffffffff    004ab7b0     levmar:lm.obj
 0002:000107b8       ??_C@_0DB@HLKIALLJ@dlevmar_dif?$CI?$CJ?3?5memory?5allocation@ 004ab7b8     levmar:lm.obj
 0002:000107f0       ??_C@_0FH@CDBDAPAP@dlevmar_dif?$CI?$CJ?3?5cannot?5solve?5a?5pr@ 004ab7f0     levmar:lm.obj
 0002:00010848       ??_C@_01NANMIPIL@N?$AA@    004ab848     levmar:misc.obj
 0002:0001084c       ??_C@_01GAPBHFFA@T?$AA@    004ab84c     levmar:misc.obj
 0002:00010850       __real@3f1a36e2e0000000    004ab850     levmar:misc.obj
 0002:00010858       __real@34000000            004ab858     levmar:misc.obj
 0002:00010860       __real@3ee9000000000000    004ab860     levmar:misc.obj
 0002:00010868       ??_C@_0DE@GALELFEI@slevmar_chkjac?$CI?$CJ?3?5memory?5allocat@ 004ab868     levmar:misc.obj
 0002:000108a0       __real@3e80000000000000    004ab8a0     levmar:misc.obj
 0002:000108a8       ??_C@_0GH@JGAJGJGB@LAPACK?5error?3?5dgesdd?5?$CIdbdsdc?$CJ?1dg@ 004ab8a8     levmar:misc.obj
 0002:00010910       ??_C@_0FO@CEMBLKOM@LAPACK?5error?3?5illegal?5value?5for?5@ 004ab910     levmar:misc.obj
 0002:00010970       ??_C@_01FHEEJDEE@A?$AA@    004ab970     levmar:misc.obj
 0002:00010974       ??_C@_0DG@MLACHCEN@memory?5allocation?5in?5slevmar_pse@ 004ab974     levmar:misc.obj
 0002:000109ac       ??_C@_0DC@HGBEPPLN@memory?5allocation?5request?5failed@ 004ab9ac     levmar:misc.obj
 0002:000109e0       ??_C@_0EM@GKNBNKCK@LAPACK?5error?3?5the?5leading?5minor?5@ 004ab9e0     levmar:misc.obj
 0002:00010a30       ??_C@_0EG@JJJOIGJI@and?5the?5Cholesky?5factorization?5c@ 004aba30     levmar:misc.obj
 0002:00010a78       ??_C@_0DN@BOKGPFAO@LAPACK?5error?3?5illegal?5value?5for?5@ 004aba78     levmar:misc.obj
 0002:00010ab8       ??_C@_0P@PAMLFKAD@slevmar_chol?$CI?$CJ?$AA@ 004abab8     levmar:misc.obj
 0002:00010ac8       ??_C@_01OCOKONAJ@L?$AA@    004abac8     levmar:misc.obj
 0002:00010ad0       __real@3d19000000000000    004abad0     levmar:misc.obj
 0002:00010ad8       ??_C@_0DE@IMNJJILP@dlevmar_chkjac?$CI?$CJ?3?5memory?5allocat@ 004abad8     levmar:misc.obj
 0002:00010b10       __real@3cb0000000000000    004abb10     levmar:misc.obj
 0002:00010b18       ??_C@_0GH@NKLKEAJB@LAPACK?5error?3?5dgesdd?5?$CIdbdsdc?$CJ?1dg@ 004abb18     levmar:misc.obj
 0002:00010b80       ??_C@_0FO@OLEMLPHA@LAPACK?5error?3?5illegal?5value?5for?5@ 004abb80     levmar:misc.obj
 0002:00010be0       ??_C@_0DG@JCBEIDCG@memory?5allocation?5in?5dlevmar_pse@ 004abbe0     levmar:misc.obj
 0002:00010c18       ??_C@_0DC@HFGLGJBB@memory?5allocation?5request?5failed@ 004abc18     levmar:misc.obj
 0002:00010c50       ??_C@_0EG@FAOKCGBK@and?5the?5Cholesky?5factorization?5c@ 004abc50     levmar:misc.obj
 0002:00010c98       ??_C@_0P@CPKIMKFG@dlevmar_chol?$CI?$CJ?$AA@ 004abc98     levmar:misc.obj
 0002:00010ca8       ??_C@_0FK@PBCCIJBO@LAPACK?5error?3?5the?5?$CFd?9th?5diagonal@ 004abca8     levmar:Axb.obj
 0002:00010d08       ??_C@_0EJ@NGMJAJGE@LAPACK?5error?3?5illegal?5value?5for?5@ 004abd08     levmar:Axb.obj
 0002:00010d54       ??_C@_01HJOKEEBB@U?$AA@    004abd54     levmar:Axb.obj
 0002:00010d58       ??_C@_0CM@JHNLNMOH@Unknown?5LAPACK?5error?5?$CI?$CFd?$CJ?5in?5dAx@ 004abd58     levmar:Axb.obj
 0002:00010d88       ??_C@_0EJ@EGANJKEB@LAPACK?5error?3?5illegal?5value?5for?5@ 004abd88     levmar:Axb.obj
 0002:00010dd4       ??_C@_0DG@IPEEPJOP@Unknown?5LAPACK?5error?5?$CFd?5for?5dgeq@ 004abdd4     levmar:Axb.obj
 0002:00010e10       ??_C@_0EJ@KIKIAOJN@LAPACK?5error?3?5illegal?5value?5for?5@ 004abe10     levmar:Axb.obj
 0002:00010e5c       ??_C@_0CM@IHOMHELB@memory?5allocation?5in?5dAx_eq_b_QR@ 004abe5c     levmar:Axb.obj
 0002:00010e88       ??_C@_0FM@KHGKLCAL@LAPACK?5error?3?5the?5?$CFd?9th?5diagonal@ 004abe88     levmar:Axb.obj
 0002:00010ee8       ??_C@_0EL@JPACIHLM@LAPACK?5error?3?5illegal?5value?5for?5@ 004abee8     levmar:Axb.obj
 0002:00010f34       ??_C@_0DI@PKMIGNKN@Unknown?5LAPACK?5error?5?$CFd?5for?5dgeq@ 004abf34     levmar:Axb.obj
 0002:00010f70       ??_C@_0EL@MEBIDGIK@LAPACK?5error?3?5illegal?5value?5for?5@ 004abf70     levmar:Axb.obj
 0002:00010fbc       ??_C@_0CO@FHANMIBE@memory?5allocation?5in?5dAx_eq_b_QR@ 004abfbc     levmar:Axb.obj
 0002:00010ff0       ??_C@_0IF@LHKMNCPK@Normal?5equations?5require?5that?5th@ 004abff0     levmar:Axb.obj
 0002:00011078       ??_C@_0EL@FMHFDOPB@LAPACK?5error?3?5illegal?5value?5for?5@ 004ac078     levmar:Axb.obj
 0002:000110c8       ??_C@_0JH@CBEJKAGG@LAPACK?5error?3?5the?5leading?5minor?5@ 004ac0c8     levmar:Axb.obj
 0002:00011160       ??_C@_0FD@KCPLLOOD@LAPACK?5error?3?5illegal?5value?5for?5@ 004ac160     levmar:Axb.obj
 0002:000111b4       ??_C@_0CO@MCOGKDH@memory?5allocation?5in?5dAx_eq_b_Ch@ 004ac1b4     levmar:Axb.obj
 0002:000111e4       ??_C@_0CM@KOAKHMJD@unknown?5error?5for?5dgetrs_?5in?5dAx@ 004ac1e4     levmar:Axb.obj
 0002:00011210       ??_C@_0DB@ECMCDJMA@argument?5?$CFd?5of?5dgetrs_?5illegal?5i@ 004ac210     levmar:Axb.obj
 0002:00011244       ??_C@_0DA@NILOBIKP@singular?5matrix?5A?5for?5dgetrf_?5in@ 004ac244     levmar:Axb.obj
 0002:00011274       ??_C@_0DB@PAGDAPDA@argument?5?$CFd?5of?5dgetrf_?5illegal?5i@ 004ac274     levmar:Axb.obj
 0002:000112a8       ??_C@_0CM@CLNHDONO@memory?5allocation?5in?5dAx_eq_b_LU@ 004ac2a8     levmar:Axb.obj
 0002:000112d8       ??_C@_0FO@KABOHMPK@LAPACK?5error?3?5dgesdd?5?$CIdbdsdc?$CJ?1dg@ 004ac2d8     levmar:Axb.obj
 0002:00011338       ??_C@_0FF@OMHJDCBF@LAPACK?5error?3?5illegal?5value?5for?5@ 004ac338     levmar:Axb.obj
 0002:00011390       ??_C@_0CN@HHCAPPGL@memory?5allocation?5in?5dAx_eq_b_SV@ 004ac390     levmar:Axb.obj
 0002:000113c0       ??_C@_0EJ@HKDIOFJM@LAPACK?5error?3?5illegal?5value?5for?5@ 004ac3c0     levmar:Axb.obj
 0002:00011410       ??_C@_0GA@FPBHOMHI@LAPACK?5error?3?5singular?5block?5dia@ 004ac410     levmar:Axb.obj
 0002:00011470       ??_C@_0EJ@LMPPHAFF@LAPACK?5error?3?5illegal?5value?5for?5@ 004ac470     levmar:Axb.obj
 0002:000114bc       ??_C@_0CM@KOKNMBDE@memory?5allocation?5in?5dAx_eq_b_BK@ 004ac4bc     levmar:Axb.obj
 0002:000114e8       ??_C@_0FK@COEBBJEL@LAPACK?5error?3?5the?5?$CFd?9th?5diagonal@ 004ac4e8     levmar:Axb.obj
 0002:00011548       ??_C@_0EJ@HLDLLJGP@LAPACK?5error?3?5illegal?5value?5for?5@ 004ac548     levmar:Axb.obj
 0002:00011594       ??_C@_0CM@EILIEMLC@Unknown?5LAPACK?5error?5?$CI?$CFd?$CJ?5in?5sAx@ 004ac594     levmar:Axb.obj
 0002:000115c0       ??_C@_0EJ@OLPPCKEK@LAPACK?5error?3?5illegal?5value?5for?5@ 004ac5c0     levmar:Axb.obj
 0002:0001160c       ??_C@_0DG@CCLGEJOE@Unknown?5LAPACK?5error?5?$CFd?5for?5sgeq@ 004ac60c     levmar:Axb.obj
 0002:00011648       ??_C@_0EJ@FFKLOJG@LAPACK?5error?3?5illegal?5value?5for?5@ 004ac648     levmar:Axb.obj
 0002:00011694       ??_C@_0CM@PACHGKFD@memory?5allocation?5in?5sAx_eq_b_QR@ 004ac694     levmar:Axb.obj
 0002:000116c0       ??_C@_0FM@JAKJFHDN@LAPACK?5error?3?5the?5?$CFd?9th?5diagonal@ 004ac6c0     levmar:Axb.obj
 0002:00011720       ??_C@_0EL@LHJHEAAJ@LAPACK?5error?3?5illegal?5value?5for?5@ 004ac720     levmar:Axb.obj
 0002:0001176c       ??_C@_0DI@NCFNKKBI@Unknown?5LAPACK?5error?5?$CFd?5for?5sgeq@ 004ac76c     levmar:Axb.obj
 0002:000117a8       ??_C@_0EL@OMINPBDP@LAPACK?5error?3?5illegal?5value?5for?5@ 004ac7a8     levmar:Axb.obj
 0002:000117f4       ??_C@_0CO@MBEKBDNC@memory?5allocation?5in?5sAx_eq_b_QR@ 004ac7f4     levmar:Axb.obj
 0002:00011828       ??_C@_0IF@FDJHENJF@Normal?5equations?5require?5that?5th@ 004ac828     levmar:Axb.obj
 0002:000118b0       ??_C@_0EL@HEOAPJEE@LAPACK?5error?3?5illegal?5value?5for?5@ 004ac8b0     levmar:Axb.obj
 0002:00011900       ??_C@_0JH@LECNCGOG@LAPACK?5error?3?5the?5leading?5minor?5@ 004ac900     levmar:Axb.obj
 0002:00011998       ??_C@_0FD@DHJPDIGD@LAPACK?5error?3?5illegal?5value?5for?5@ 004ac998     levmar:Axb.obj
 0002:000119ec       ??_C@_0CO@JKGJLBPB@memory?5allocation?5in?5sAx_eq_b_Ch@ 004ac9ec     levmar:Axb.obj
 0002:00011a1c       ??_C@_0CM@DPIMMJI@unknown?5error?5for?5sgetrs_?5in?5sAx@ 004aca1c     levmar:Axb.obj
 0002:00011a48       ??_C@_0DB@EHJIAHLE@argument?5?$CFd?5of?5sgetrs_?5illegal?5i@ 004aca48     levmar:Axb.obj
 0002:00011a7c       ??_C@_0DA@HFEMKIKE@singular?5matrix?5A?5for?5sgetrf_?5in@ 004aca7c     levmar:Axb.obj
 0002:00011aac       ??_C@_0DB@PFDJDBEE@argument?5?$CFd?5of?5sgetrf_?5illegal?5i@ 004acaac     levmar:Axb.obj
 0002:00011ae0       ??_C@_0CM@FMBMCADM@memory?5allocation?5in?5sAx_eq_b_LU@ 004acae0     levmar:Axb.obj
 0002:00011b10       ??_C@_0FO@NCIPFMKE@LAPACK?5error?3?5dgesdd?5?$CIdbdsdc?$CJ?1dg@ 004acb10     levmar:Axb.obj
 0002:00011b70       ??_C@_0FF@NIOMBHGM@LAPACK?5error?3?5illegal?5value?5for?5@ 004acb70     levmar:Axb.obj
 0002:00011bc8       ??_C@_0CN@DJFDLHCB@memory?5allocation?5in?5sAx_eq_b_SV@ 004acbc8     levmar:Axb.obj
 0002:00011bf8       ??_C@_0EJ@NHMKFFJH@LAPACK?5error?3?5illegal?5value?5for?5@ 004acbf8     levmar:Axb.obj
 0002:00011c48       ??_C@_0GA@CGPEKBAE@LAPACK?5error?3?5singular?5block?5dia@ 004acc48     levmar:Axb.obj
 0002:00011ca8       ??_C@_0EJ@BBANMAFO@LAPACK?5error?3?5illegal?5value?5for?5@ 004acca8     levmar:Axb.obj
 0002:00011cf4       ??_C@_0CM@NJGGNPNG@memory?5allocation?5in?5sAx_eq_b_BK@ 004accf4     levmar:Axb.obj
 0002:00011d20       ??_C@_07KJLOKDKB@TypeLib?$AA@ 004acd20     mfcs90d:nolib.obj
 0002:00011d28       ??_C@_08KEKAJNJI@Software?$AA@ 004acd28     mfcs90d:nolib.obj
 0002:00011d34       ??_C@_06FDHFNJBJ@SYSTEM?$AA@ 004acd34     mfcs90d:nolib.obj
 0002:00011d3c       ??_C@_08LOPHEHKG@SECURITY?$AA@ 004acd3c     mfcs90d:nolib.obj
 0002:00011d48       ??_C@_03DDIMFGBA@SAM?$AA@  004acd48     mfcs90d:nolib.obj
 0002:00011d4c       ??_C@_04IHBFOLAC@Mime?$AA@ 004acd4c     mfcs90d:nolib.obj
 0002:00011d54       ??_C@_08PPIOJEA@Hardware?$AA@ 004acd54     mfcs90d:nolib.obj
 0002:00011d60       ??_C@_09JKPGEJCH@Interface?$AA@ 004acd60     mfcs90d:nolib.obj
 0002:00011d6c       ??_C@_08PICKODJL@FileType?$AA@ 004acd6c     mfcs90d:nolib.obj
 0002:00011d78       ??_C@_0BF@HDDNNDFH@Component?5Categories?$AA@ 004acd78     mfcs90d:nolib.obj
 0002:00011d90       ??_C@_05GIBEAPNE@CLSID?$AA@ 004acd90     mfcs90d:nolib.obj
 0002:00011d98       ??_C@_05PDIKPLII@AppID?$AA@ 004acd98     mfcs90d:nolib.obj
 0002:00011da0       ??_C@_06JBKGCNBB@Delete?$AA@ 004acda0     mfcs90d:nolib.obj
 0002:00011da8       ??_C@_08KAAPDIAN@NoRemove?$AA@ 004acda8     mfcs90d:nolib.obj
 0002:00011db4       ??_C@_0M@DBGDLGLL@ForceRemove?$AA@ 004acdb4     mfcs90d:nolib.obj
 0002:00011dc0       ??_C@_03LAIAPFCB@Val?$AA@  004acdc0     mfcs90d:nolib.obj
 0002:00011dc4       ??_C@_01HMGJMAIH@B?$AA@    004acdc4     mfcs90d:nolib.obj
 0002:00011dc8       ??_C@_01CKDDGHAB@D?$AA@    004acdc8     mfcs90d:nolib.obj
 0002:00011dcc       ??_C@_01PLPBNMEI@M?$AA@    004acdcc     mfcs90d:nolib.obj
 0002:00011dd0       ??_C@_01CPLAODJH@S?$AA@    004acdd0     mfcs90d:nolib.obj
 0002:00011dd4       ??_C@_0BF@GPPHKJFN@Invalid?5DateTimeSpan?$AA@ 004acdd4     mfcs90d:nolib.obj
 0002:00011dec       ??_C@_0BB@KEKMKJPM@Invalid?5DateTime?$AA@ 004acdec     mfcs90d:nolib.obj
 0002:00011e00       _LIBID_ATLLib              004ace00     mfcs90d:nolib.obj
 0002:00011e10       _CLSID_Registrar           004ace10     mfcs90d:nolib.obj
 0002:00011e20       _IID_IRegistrar            004ace20     mfcs90d:nolib.obj
 0002:00011e30       _IID_IAxWinHostWindow      004ace30     mfcs90d:nolib.obj
 0002:00011e40       _IID_IAxWinAmbientDispatch 004ace40     mfcs90d:nolib.obj
 0002:00011e50       _IID_IInternalConnection   004ace50     mfcs90d:nolib.obj
 0002:00011e60       _IID_IDocHostUIHandlerDispatch 004ace60     mfcs90d:nolib.obj
 0002:00011e70       _IID_IAxWinHostWindowLic   004ace70     mfcs90d:nolib.obj
 0002:00011e80       _IID_IAxWinAmbientDispatchEx 004ace80     mfcs90d:nolib.obj
 0002:00011eb0       ?MAX_VALUE@CRegParser@ATL@@1HB 004aceb0     mfcs90d:nolib.obj
 0002:00011eb4       ?MAX_TYPE@CRegParser@ATL@@1HB 004aceb4     mfcs90d:nolib.obj
 0002:00011eb8       ?rgszNeverDelete@CRegParser@ATL@@1QBQBDB 004aceb8     mfcs90d:nolib.obj
 0002:00011ee8       ?cbNeverDelete@CRegParser@ATL@@1HB 004acee8     mfcs90d:nolib.obj
 0002:00011f10       ??_7type_info@@6B@         004acf10     msvcrtd:ti_inst.obj
 0002:00011f18       ??_C@_1GA@EHAKPACL@?$AAf?$AA?3?$AA?2?$AAd?$AAd?$AA?2?$AAv?$AAc?$AAt?$AAo?$AAo?$AAl?$AAs?$AA?2?$AAc?$AAr?$AAt?$AA_?$AAb?$AAl?$AAd?$AA?2?$AAs?$AAe?$AAl?$AAf?$AA_?$AAx?$AA8?$AA6?$AA?2?$AAc@ 004acf18     msvcrtd:crtexew.obj
 0002:00011f78       ??_C@_1FA@DALEHHGL@?$AA_?$AA_?$AAn?$AAa?$AAt?$AAi?$AAv?$AAe?$AA_?$AAs?$AAt?$AAa?$AAr?$AAt?$AAu?$AAp?$AA_?$AAs?$AAt?$AAa?$AAt?$AAe?$AA?5?$AA?$DN?$AA?$DN?$AA?5?$AA_?$AA_?$AAi?$AAn?$AAi?$AAt@ 004acf78     msvcrtd:crtexew.obj
 0002:00011fd0       ?ProcessDetach@NativeDll@<CrtImplementationDetails>@@0IB 004acfd0     msvcrtd:unhandld.obj
 0002:00011fd4       ?ProcessAttach@NativeDll@<CrtImplementationDetails>@@0IB 004acfd4     msvcrtd:unhandld.obj
 0002:00011fd8       ?ThreadAttach@NativeDll@<CrtImplementationDetails>@@0IB 004acfd8     msvcrtd:unhandld.obj
 0002:00011fdc       ?ThreadDetach@NativeDll@<CrtImplementationDetails>@@0IB 004acfdc     msvcrtd:unhandld.obj
 0002:00011fe0       ?ProcessVerifier@NativeDll@<CrtImplementationDetails>@@0IB 004acfe0     msvcrtd:unhandld.obj
 0002:00011fe8       ??_C@_1GE@KOCFNGPB@?$AA_?$AAc?$AAo?$AAn?$AAt?$AAr?$AAo?$AAl?$AAf?$AAp?$AA_?$AAs?$AA?$CI?$AA?$CI?$AA?$CI?$AAv?$AAo?$AAi?$AAd?$AA?5?$AA?$CK?$AA?$CJ?$AA0?$AA?$CJ?$AA?0?$AA?5?$AA0?$AAx?$AA0?$AA0?$AA0?$AA1@ 004acfe8     msvcrtd:fp8.obj
 0002:0001204c       ??_C@_1CK@JMKHCBEI@?$AA_?$AAs?$AAe?$AAt?$AAd?$AAe?$AAf?$AAa?$AAu?$AAl?$AAt?$AAp?$AAr?$AAe?$AAc?$AAi?$AAs?$AAi?$AAo?$AAn?$AA?$AA@ 004ad04c     msvcrtd:fp8.obj
 0002:00012078       ??_C@_1GG@PHGJJHBC@?$AAf?$AA?3?$AA?2?$AAd?$AAd?$AA?2?$AAv?$AAc?$AAt?$AAo?$AAo?$AAl?$AAs?$AA?2?$AAc?$AAr?$AAt?$AA_?$AAb?$AAl?$AAd?$AA?2?$AAs?$AAe?$AAl?$AAf?$AA_?$AAx?$AA8?$AA6?$AA?2?$AAc@ 004ad078     msvcrtd:fp8.obj
 0002:000120e0       ??_C@_06JMICFIKN@?$CFs_?$CF0x?$AA@ 004ad0e0     atlsd:Externs.obj
 0002:000120e8       ??_C@_0CJ@CAALMDEI@AtlDebugAllocator_FileMappingNam@ 004ad0e8     atlsd:Externs.obj
 0002:00012114       ??_C@_0CK@BODLKOMG@AtlTraceModuleManager_ProcessAdd@ 004ad114     atlsd:Externs.obj
 0002:00012140       ??_C@_1GM@OMLOBEGL@?$AAf?$AA?3?$AA?2?$AAd?$AAd?$AA?2?$AAv?$AAc?$AAt?$AAo?$AAo?$AAl?$AAs?$AA?2?$AAv?$AAc?$AA7?$AAl?$AAi?$AAb?$AAs?$AA?2?$AAs?$AAh?$AAi?$AAp?$AA?2?$AAa?$AAt?$AAl?$AAm?$AAf@ 004ad140     atlsd:Externs.obj
 0002:000121ac       ??_C@_1M@HLGKFCJM@?$AAf?$AAa?$AAl?$AAs?$AAe?$AA?$AA@ 004ad1ac     atlsd:Externs.obj
 0002:000121b8       ??_C@_0DG@BLHODJEO@f?3?2dd?2vctools?2vc7libs?2ship?2atlmf@ 004ad1b8     atlsd:Externs.obj
 0002:000121f0       ??_C@_0BF@IAAKIJDJ@AtlThrow?3?5hr?5?$DN?50x?$CFx?6?$AA@ 004ad1f0     atlsd:Externs.obj
 0002:00012208       ??_C@_0BA@MKMIKKJB@atlTraceGeneral?$AA@ 004ad208     atlsd:atltrace.obj
 0002:00012218       ??_C@_0M@DGPFJEBB@atlTraceCOM?$AA@ 004ad218     atlsd:atltrace.obj
 0002:00012224       ??_C@_0L@LHELAKBP@atlTraceQI?$AA@ 004ad224     atlsd:atltrace.obj
 0002:00012230       ??_C@_0BC@MALHFBAO@atlTraceRegistrar?$AA@ 004ad230     atlsd:atltrace.obj
 0002:00012244       ??_C@_0BB@ILPPDKFL@atlTraceRefcount?$AA@ 004ad244     atlsd:atltrace.obj
 0002:00012258       ??_C@_0BC@DGHHNKDC@atlTraceWindowing?$AA@ 004ad258     atlsd:atltrace.obj
 0002:0001226c       ??_C@_0BB@GHKJKKIE@atlTraceControls?$AA@ 004ad26c     atlsd:atltrace.obj
 0002:00012280       ??_C@_0BA@DKOAAGGM@atlTraceHosting?$AA@ 004ad280     atlsd:atltrace.obj
 0002:00012290       ??_C@_0BB@BEBMGMDO@atlTraceDBClient?$AA@ 004ad290     atlsd:atltrace.obj
 0002:000122a4       ??_C@_0BD@KOADKDIA@atlTraceDBProvider?$AA@ 004ad2a4     atlsd:atltrace.obj
 0002:000122b8       ??_C@_0P@LNEGBOLO@atlTraceSnapin?$AA@ 004ad2b8     atlsd:atltrace.obj
 0002:000122c8       ??_C@_0BA@MCBFIDIC@atlTraceNotImpl?$AA@ 004ad2c8     atlsd:atltrace.obj
 0002:000122d8       ??_C@_0BD@PJPCCAKP@atlTraceAllocation?$AA@ 004ad2d8     atlsd:atltrace.obj
 0002:000122ec       ??_C@_0BC@PGMFNIFA@atlTraceException?$AA@ 004ad2ec     atlsd:atltrace.obj
 0002:00012300       ??_C@_0N@BNNILHBE@atlTraceTime?$AA@ 004ad300     atlsd:atltrace.obj
 0002:00012310       ??_C@_0O@MEOJAOKK@atlTraceCache?$AA@ 004ad310     atlsd:atltrace.obj
 0002:00012320       ??_C@_0BA@IDBKCKK@atlTraceStencil?$AA@ 004ad320     atlsd:atltrace.obj
 0002:00012330       ??_C@_0P@MBNHGHMI@atlTraceString?$AA@ 004ad330     atlsd:atltrace.obj
 0002:00012340       ??_C@_0M@IOBBMAHG@atlTraceMap?$AA@ 004ad340     atlsd:atltrace.obj
 0002:0001234c       ??_C@_0N@FEAAACHD@atlTraceUtil?$AA@ 004ad34c     atlsd:atltrace.obj
 0002:0001235c       ??_C@_0BB@DNJDADMG@atlTraceSecurity?$AA@ 004ad35c     atlsd:atltrace.obj
 0002:00012370       ??_C@_0N@KLPNCFEE@atlTraceSync?$AA@ 004ad370     atlsd:atltrace.obj
 0002:00012380       ??_C@_0O@KHOBHOBJ@atlTraceISAPI?$AA@ 004ad380     atlsd:atltrace.obj
 0002:00012390       ??_C@_0N@BEIMPMHB@atlTraceUser?$AA@ 004ad390     atlsd:atltrace.obj
 0002:000123a0       ??_C@_0O@MKGGJJCH@atlTraceUser2?$AA@ 004ad3a0     atlsd:atltrace.obj
 0002:000123b0       ??_C@_0O@NDHNKIGG@atlTraceUser3?$AA@ 004ad3b0     atlsd:atltrace.obj
 0002:000123c0       ??_C@_0O@JMDMDOKB@atlTraceUser4?$AA@ 004ad3c0     atlsd:atltrace.obj
 0002:000123d0       ??_C@_1HO@MNFHLCLF@?$AAf?$AA?3?$AA?2?$AAd?$AAd?$AA?2?$AAv?$AAc?$AAt?$AAo?$AAo?$AAl?$AAs?$AA?2?$AAv?$AAc?$AA7?$AAl?$AAi?$AAb?$AAs?$AA?2?$AAs?$AAh?$AAi?$AAp?$AA?2?$AAa?$AAt?$AAl?$AAm?$AAf@ 004ad3d0     atlsd:AtlDebugAPI.obj
 0002:00012450       ??_C@_1BK@LIHAAANN@?$AAp?$AAM?$AAo?$AAd?$AAu?$AAl?$AAe?$AA?5?$AA?$CB?$AA?$DN?$AA?5?$AA0?$AA?$AA@ 004ad450     atlsd:AtlDebugAPI.obj
 0002:0001246c       ??_C@_1BM@DFEBCPM@?$AAp?$AAP?$AAr?$AAo?$AAc?$AAe?$AAs?$AAs?$AA?5?$AA?$CB?$AA?$DN?$AA?5?$AA0?$AA?$AA@ 004ad46c     atlsd:AtlDebugAPI.obj
 0002:00012488       ??_C@_1BM@GBBOFEAE@?$AA_?$AA_?$AAa?$AAt?$AAl?$AA_?$AAc?$AAo?$AAn?$AAd?$AAV?$AAa?$AAl?$AA?$AA@ 004ad488     atlsd:AtlDebugAPI.obj
 0002:000124a4       ??_C@_02DKCKIIND@?$CFs?$AA@ 004ad4a4     atlsd:AtlDebugAPI.obj
 0002:000124a8       ??_C@_04FFDMEMDO@?$CFS?3?5?$AA@ 004ad4a8     atlsd:AtlDebugAPI.obj
 0002:000124b0       ??_C@_09IIMHCEDG@?$CFs?$CI?$CFd?$CJ?5?3?5?$AA@ 004ad4b0     atlsd:AtlDebugAPI.obj
 0002:000124bc       ??_C@_02KPKOKMHB@?$CFS?$AA@ 004ad4bc     atlsd:AtlDebugAPI.obj
 0002:000124c0       ??_C@_19JCANECJL@?$AA?$CF?$AAs?$AA?3?$AA?5?$AA?$AA@ 004ad4c0     atlsd:AtlDebugAPI.obj
 0002:000124cc       ??_C@_1BE@PGKGHBDF@?$AA?$CF?$AAS?$AA?$CI?$AA?$CF?$AAd?$AA?$CJ?$AA?5?$AA?3?$AA?5?$AA?$AA@ 004ad4cc     atlsd:AtlDebugAPI.obj
 0002:000124e0       ??_C@_1DA@NMHCLMEJ@?$AAp?$AAA?$AAl?$AAl?$AAo?$AAc?$AAa?$AAt?$AAo?$AAr?$AA?9?$AA?$DO?$AAm?$AA_?$AAb?$AAS?$AAn?$AAa?$AAp?$AAs?$AAh?$AAo?$AAt?$AA?$AA@ 004ad4e0     atlsd:AtlDebugAPI.obj
 0002:00012510       ??_C@_1CE@NDBHOLMF@?$AAp?$AAP?$AAr?$AAo?$AAc?$AAe?$AAs?$AAs?$AAI?$AAn?$AAf?$AAo?$AA?5?$AA?$CB?$AA?$DN?$AA?5?$AA0?$AA?$AA@ 004ad510     atlsd:AtlDebugAPI.obj
 0002:00012534       ??_C@_1CC@ONKAHKMP@?$AAp?$AAM?$AAo?$AAd?$AAu?$AAl?$AAe?$AAI?$AAn?$AAf?$AAo?$AA?5?$AA?$CB?$AA?$DN?$AA?5?$AA0?$AA?$AA@ 004ad534     atlsd:AtlDebugAPI.obj
 0002:00012558       ??_C@_1CG@BANGGBIE@?$AAp?$AAC?$AAa?$AAt?$AAe?$AAg?$AAo?$AAr?$AAy?$AAI?$AAn?$AAf?$AAo?$AA?5?$AA?$CB?$AA?$DN?$AA?5?$AA0?$AA?$AA@ 004ad558     atlsd:AtlDebugAPI.obj
 0002:00012580       ??_C@_1BC@JOPFIJLO@?$AAp?$AAP?$AAr?$AAo?$AAc?$AAe?$AAs?$AAs?$AA?$AA@ 004ad580     atlsd:AtlDebugAPI.obj
 0002:00012594       ??_C@_1DM@CECLCIOA@?$AAp?$AAp?$AAC?$AAa?$AAt?$AAe?$AAg?$AAo?$AAr?$AAy?$AA?5?$AA?$CG?$AA?$CG?$AA?5?$AAp?$AAf?$AAn?$AAC?$AAr?$AAt?$AAD?$AAb?$AAg?$AAR?$AAe?$AAp?$AAo?$AAr?$AAt?$AA?$AA@ 004ad594     atlsd:AtlDebugAPI.obj
 0002:000125d0       ??_C@_1HA@EFGOBFOA@?$AAf?$AA?3?$AA?2?$AAd?$AAd?$AA?2?$AAv?$AAc?$AAt?$AAo?$AAo?$AAl?$AAs?$AA?2?$AAv?$AAc?$AA7?$AAl?$AAi?$AAb?$AAs?$AA?2?$AAs?$AAh?$AAi?$AAp?$AA?2?$AAa?$AAt?$AAl?$AAm?$AAf@ 004ad5d0     atlsd:AtlDebugAPI.obj
 0002:00012640       ??_C@_1EA@JHMKKLFC@?$AAn?$AAI?$AAn?$AAd?$AAe?$AAx?$AA?5?$AA?$DO?$AA?$DN?$AA?5?$AA0?$AA?5?$AA?$CG?$AA?$CG?$AA?5?$AAn?$AAI?$AAn?$AAd?$AAe?$AAx?$AA?5?$AA?$DM?$AA?5?$AAm?$AA_?$AAn?$AAS?$AAi?$AAz?$AAe?$AA?$AA@ 004ad640     atlsd:AtlDebugAPI.obj
 0002:00012680       ??_C@_1GI@CLJCGCPP@?$AAf?$AA?3?$AA?2?$AAd?$AAd?$AA?2?$AAv?$AAc?$AAt?$AAo?$AAo?$AAl?$AAs?$AA?2?$AAv?$AAc?$AA7?$AAl?$AAi?$AAb?$AAs?$AA?2?$AAs?$AAh?$AAi?$AAp?$AA?2?$AAa?$AAt?$AAl?$AAm?$AAf@ 004ad680     atlsd:AtlDebugAPI.obj
 0002:000126e8       ??_C@_1BK@NHHHCKNA@?$AAm?$AA_?$AAt?$AAi?$AAm?$AAe?$AA?5?$AA?$CB?$AA?$DN?$AA?5?$AA?9?$AA1?$AA?$AA@ 004ad6e8     atlsd:atltime.obj
 0002:00012708       ??_C@_1GM@GOMCALCH@?$AAf?$AA?3?$AA?2?$AAd?$AAd?$AA?2?$AAv?$AAc?$AAt?$AAo?$AAo?$AAl?$AAs?$AA?2?$AAv?$AAc?$AA7?$AAl?$AAi?$AAb?$AAs?$AA?2?$AAs?$AAh?$AAi?$AAp?$AA?2?$AAa?$AAt?$AAl?$AAm?$AAf@ 004ad708     atlsd:atltime.obj
 0002:00012774       ??_C@_1BC@PMINONJG@?$AAb?$AAS?$AAu?$AAc?$AAc?$AAe?$AAs?$AAs?$AA?$AA@ 004ad774     atlsd:Allocate.obj
 0002:00012788       ??_C@_1HI@MDMANKNC@?$AAf?$AA?3?$AA?2?$AAd?$AAd?$AA?2?$AAv?$AAc?$AAt?$AAo?$AAo?$AAl?$AAs?$AA?2?$AAv?$AAc?$AA7?$AAl?$AAi?$AAb?$AAs?$AA?2?$AAs?$AAh?$AAi?$AAp?$AA?2?$AAa?$AAt?$AAl?$AAm?$AAf@ 004ad788     atlsd:Allocate.obj
 0002:00012800       ??_C@_1DG@LHMNHOH@?$AA?$CB?$AAm?$AA_?$AAh?$AAM?$AAa?$AAp?$AA?5?$AA?$CG?$AA?$CG?$AA?5?$AA?$CB?$AAm?$AA_?$AAp?$AAB?$AAu?$AAf?$AAf?$AAe?$AAr?$AAS?$AAt?$AAa?$AAr?$AAt?$AA?$AA@ 004ad800     atlsd:Allocate.obj
 0002:00012838       ??_C@_1CC@JCNIBNON@?$AAi?$AAM?$AAo?$AAd?$AAu?$AAl?$AAe?$AA?5?$AA?$DM?$AA?5?$AAm?$AAo?$AAd?$AAc?$AAn?$AAt?$AA?$AA@ 004ad838     atlsd:Allocate.obj
 0002:00012860       ??_C@_1HO@KONLCGL@?$AA?$CI?$AAi?$AAC?$AAa?$AAt?$AAe?$AAg?$AAo?$AAr?$AAy?$AA?5?$AA?$DM?$AA?5?$AAm?$AA_?$AAp?$AAP?$AAr?$AAo?$AAc?$AAe?$AAs?$AAs?$AA?9?$AA?$DO?$AAC?$AAa?$AAt?$AAe?$AAg?$AAo?$AAr@ 004ad860     atlsd:Allocate.obj
 0002:000128e0       ??_C@_1BG@EIHNOMMF@?$AAm?$AA_?$AAp?$AAP?$AAr?$AAo?$AAc?$AAe?$AAs?$AAs?$AA?$AA@ 004ad8e0     atlsd:Allocate.obj
 0002:000128f8       ??_C@_1IO@GJLKCBCE@?$AAf?$AA?3?$AA?2?$AAd?$AAd?$AA?2?$AAv?$AAc?$AAt?$AAo?$AAo?$AAl?$AAs?$AA?2?$AAv?$AAc?$AA7?$AAl?$AAi?$AAb?$AAs?$AA?2?$AAs?$AAh?$AAi?$AAp?$AA?2?$AAa?$AAt?$AAl?$AAm?$AAf@ 004ad8f8     atlsd:Allocate.obj
 0002:00012988       ??_C@_1BK@GFEAMNLJ@?$AAn?$AAC?$AAo?$AAo?$AAk?$AAi?$AAe?$AA?5?$AA?$CB?$AA?$DN?$AA?5?$AA0?$AA?$AA@ 004ad988     atlsd:Allocate.obj
 0002:000129a4       ??_C@_1BO@OAGIAJOK@?$AAp?$AAC?$AAa?$AAt?$AAe?$AAg?$AAo?$AAr?$AAy?$AA?5?$AA?$CB?$AA?$DN?$AA?5?$AA0?$AA?$AA@ 004ad9a4     atlsd:Allocate.obj
 0002:000129c4       ??_C@_11LOCGONAA@?$AA?$AA@ 004ad9c4     atlsd:AtlTraceModuleManager.obj
 0002:000129c8       ??_C@_06HGFIIEJH@SGEMM?5?$AA@ 004ad9c8     blas:sgemm.obj
 0002:000129d0       ??_C@_01GFHCPBMG@C?$AA@    004ad9d0     blas:sgemm.obj
 0002:000129d4       ??_C@_06NECBCGNH@DGEMM?5?$AA@ 004ad9d4     blas:dgemm.obj
 0002:000129dc       ??_C@_0DP@OFDGIAEO@?$CK?$CK?5On?5entry?5to?5?$CF6s?0?5parameter?5nu@ 004ad9dc     blas:xerbla.obj
 0002:00012a1c       ??_C@_01DGKLNCNG@R?$AA@    004ada1c     lapack:sgesvd.obj
 0002:00012a20       ??_C@_01BIAFAFID@F?$AA@    004ada20     lapack:sgesvd.obj
 0002:00012a24       ??_C@_01BBODEMC@G?$AA@     004ada24     lapack:sgesvd.obj
 0002:00012a28       ??_C@_06BAJAIPIM@SORGLQ?$AA@ 004ada28     lapack:sgesvd.obj
 0002:00012a30       ??_C@_06OIHPHFMH@SGELQF?$AA@ 004ada30     lapack:sgesvd.obj
 0002:00012a38       ??_C@_01BNIGIBBF@Q?$AA@    004ada38     lapack:sgesvd.obj
 0002:00012a3c       ??_C@_06CPEDOMGM@SORGQR?$AA@ 004ada3c     lapack:sgesvd.obj
 0002:00012a44       ??_C@_06DBCDPBEF@SORGBR?$AA@ 004ada44     lapack:sgesvd.obj
 0002:00012a4c       ??_C@_01EJNLAFE@P?$AA@     004ada4c     lapack:sgesvd.obj
 0002:00012a50       ??_C@_06DINANOCP@SGEBRD?$AA@ 004ada50     lapack:sgesvd.obj
 0002:00012a58       ??_C@_06EIEKEENM@SGEQRF?$AA@ 004ada58     lapack:sgesvd.obj
 0002:00012a60       ??_C@_01CLKCMJKC@?5?$AA@   004ada60     lapack:sgesvd.obj
 0002:00012a64       ??_C@_06NHHMEGAJ@SGESVD?$AA@ 004ada64     lapack:sgesvd.obj
 0002:00012a6c       ??_C@_01MJMHLOMK@O?$AA@    004ada6c     lapack:sgesvd.obj
 0002:00012a70       ??_C@_0N@NEJJDAPK@No?5transpose?$AA@ 004ada70     lapack:spotf2.obj
 0002:00012a80       ??_C@_09OMALPMGL@Transpose?$AA@ 004ada80     lapack:spotf2.obj
 0002:00012a8c       ??_C@_06HLILCJDC@SPOTF2?$AA@ 004ada8c     lapack:spotf2.obj
 0002:00012a94       ??_C@_06LCOJCNMM@DORGLQ?$AA@ 004ada94     lapack:dgesvd.obj
 0002:00012a9c       ??_C@_06EKAGNHIH@DGELQF?$AA@ 004ada9c     lapack:dgesvd.obj
 0002:00012aa4       ??_C@_06INDKEOCM@DORGQR?$AA@ 004adaa4     lapack:dgesvd.obj
 0002:00012aac       ??_C@_06JDFKFDAF@DORGBR?$AA@ 004adaac     lapack:dgesvd.obj
 0002:00012ab4       ??_C@_06JKKJHMGP@DGEBRD?$AA@ 004adab4     lapack:dgesvd.obj
 0002:00012abc       ??_C@_06OKDDOGJM@DGEQRF?$AA@ 004adabc     lapack:dgesvd.obj
 0002:00012ac4       ??_C@_06HFAFOEEJ@DGESVD?$AA@ 004adac4     lapack:dgesvd.obj
 0002:00012acc       ??_C@_06NJPCILHC@DPOTF2?$AA@ 004adacc     lapack:dpotf2.obj
 0002:00012ad4       ??_C@_04KPCPLBPL@Left?$AA@ 004adad4     lapack:dtrtrs.obj
 0002:00012adc       ??_C@_06LNNKMLBN@DTRTRS?$AA@ 004adadc     lapack:dtrtrs.obj
 0002:00012ae4       ??_C@_07NALHMFBO@Forward?$AA@ 004adae4     lapack:dorgqr.obj
 0002:00012aec       ??_C@_0L@DOKHANPG@Columnwise?$AA@ 004adaec     lapack:dorgqr.obj
 0002:00012af8       ??_C@_05IIDIPOEN@Lower?$AA@ 004adaf8     lapack:dpotrs.obj
 0002:00012b00       ??_C@_05NDIGJFPE@Upper?$AA@ 004adb00     lapack:dpotrs.obj
 0002:00012b08       ??_C@_08IAEIADFB@Non?9unit?$AA@ 004adb08     lapack:dpotrs.obj
 0002:00012b14       ??_C@_06LODLNKDI@DPOTRS?$AA@ 004adb14     lapack:dpotrs.obj
 0002:00012b1c       ??_C@_05DADPALEM@Right?$AA@ 004adb1c     lapack:dpotrf.obj
 0002:00012b24       ??_C@_06IJIODMCM@DPOTRF?$AA@ 004adb24     lapack:dpotrf.obj
 0002:00012b2c       ??_C@_04BOICIEDE@Unit?$AA@ 004adb2c     lapack:dgetrs.obj
 0002:00012b34       ??_C@_06OKFIPALK@DGETRS?$AA@ 004adb34     lapack:dgetrs.obj
 0002:00012b3c       ??_C@_06NNONBGKO@DGETRF?$AA@ 004adb3c     lapack:dgetrf.obj
 0002:00012b44       ??_C@_06NHAPMKLE@DSYTRS?$AA@ 004adb44     lapack:dsytrs.obj
 0002:00012b4c       ??_C@_06OALKCMKA@DSYTRF?$AA@ 004adb4c     lapack:dsytrf.obj
 0002:00012b54       ??_C@_06BPKDGJFN@STRTRS?$AA@ 004adb54     lapack:strtrs.obj
 0002:00012b5c       ??_C@_06BMECHIHI@SPOTRS?$AA@ 004adb5c     lapack:spotrs.obj
 0002:00012b64       ??_C@_06CLPHJOGM@SPOTRF?$AA@ 004adb64     lapack:spotrf.obj
 0002:00012b6c       ??_C@_06EICBFCPK@SGETRS?$AA@ 004adb6c     lapack:sgetrs.obj
 0002:00012b74       ??_C@_06HPJELEOO@SGETRF?$AA@ 004adb74     lapack:sgetrf.obj
 0002:00012b7c       ??_C@_06HFHGGIPE@SSYTRS?$AA@ 004adb7c     lapack:ssytrs.obj
 0002:00012b84       ??_C@_06ECMDIOOA@SSYTRF?$AA@ 004adb84     lapack:ssytrf.obj
 0002:00012b8c       ??_C@_07KFOGBIOF@Rowwise?$AA@ 004adb8c     lapack:sorglq.obj
 0002:00012b94       ??_C@_06FOJOBBCB@SORMBR?$AA@ 004adb94     lapack:sormbr.obj
 0002:00012b9c       ??_C@_06HPCNGPOI@SORMLQ?$AA@ 004adb9c     lapack:sormbr.obj
 0002:00012ba4       ??_C@_06EAPOAMAI@SORMQR?$AA@ 004adba4     lapack:sormbr.obj
 0002:00012bb0       __real@3f847ae140000000    004adbb0     lapack:sbdsqr.obj
 0002:00012bb8       __real@41200000            004adbb8     lapack:sbdsqr.obj
 0002:00012bbc       __real@42c80000            004adbbc     lapack:sbdsqr.obj
 0002:00012bc0       ??_C@_01FCMHBHNC@V?$AA@    004adbc0     lapack:sbdsqr.obj
 0002:00012bc4       ??_C@_0N@ECFLIEIM@Safe?5minimum?$AA@ 004adbc4     lapack:sbdsqr.obj
 0002:00012bd4       ??_C@_07MHFJNEOI@Epsilon?$AA@ 004adbd4     lapack:sbdsqr.obj
 0002:00012bdc       ??_C@_06KDAGFNFI@SBDSQR?$AA@ 004adbdc     lapack:sbdsqr.obj
 0002:00012be4       ??_C@_06JKAPPLJJ@SLASCL?$AA@ 004adbe4     lapack:slascl.obj
 0002:00012bec       ??_C@_01POHCFINO@Z?$AA@    004adbec     lapack:slascl.obj
 0002:00012bf0       ??_C@_01IGIGCIAN@H?$AA@    004adbf0     lapack:slascl.obj
 0002:00012bf4       ??_C@_01DDCIFGEA@E?$AA@    004adbf4     lapack:slange.obj
 0002:00012bf8       ??_C@_01JPJNBJEM@I?$AA@    004adbf8     lapack:slange.obj
 0002:00012c00       __real@4040000000000000    004adc00     lapack:slamch.obj
 0002:00012c08       __real@3e70000000000000    004adc08     lapack:slamch.obj
 0002:00012c10       __real@33800000            004adc10     lapack:slamch.obj
 0002:00012c18       __real@3ff99999a0000000    004adc18     lapack:ilaenv.obj
 0002:00012c20       ??_C@_03EBDLGEJM@EBZ?$AA@  004adc20     lapack:ilaenv.obj
 0002:00012c24       ??_C@_02LAJDCOFE@ST?$AA@   004adc24     lapack:ilaenv.obj
 0002:00012c28       ??_C@_03NMIACGA@UUM?$AA@   004adc28     lapack:ilaenv.obj
 0002:00012c2c       ??_C@_02JAFMCMAN@LA?$AA@   004adc2c     lapack:ilaenv.obj
 0002:00012c30       ??_C@_02KOENCFNK@PB?$AA@   004adc30     lapack:ilaenv.obj
 0002:00012c34       ??_C@_02LHCEJACP@GB?$AA@   004adc34     lapack:ilaenv.obj
 0002:00012c38       ??_C@_03GIFFEINO@GST?$AA@  004adc38     lapack:ilaenv.obj
 0002:00012c3c       ??_C@_02BLODFLJH@PO?$AA@   004adc3c     lapack:ilaenv.obj
 0002:00012c40       ??_C@_03FDMPKKEL@TRF?$AA@  004adc40     lapack:ilaenv.obj
 0002:00012c44       ??_C@_03NEFHLGIE@TRI?$AA@  004adc44     lapack:ilaenv.obj
 0002:00012c48       ??_C@_02EDDKIDN@UN?$AA@    004adc48     lapack:ilaenv.obj
 0002:00012c4c       ??_C@_02PLCNEAJF@BR?$AA@   004adc4c     lapack:ilaenv.obj
 0002:00012c50       ??_C@_02ODIGJPFH@TR?$AA@   004adc50     lapack:ilaenv.obj
 0002:00012c54       ??_C@_02PGLKMFED@HR?$AA@   004adc54     lapack:ilaenv.obj
 0002:00012c58       ??_C@_02DBAMGCGD@QL?$AA@   004adc58     lapack:ilaenv.obj
 0002:00012c5c       ??_C@_02NKJODOFM@LQ?$AA@   004adc5c     lapack:ilaenv.obj
 0002:00012c60       ??_C@_02MMCGLACG@RQ?$AA@   004adc60     lapack:ilaenv.obj
 0002:00012c64       ??_C@_02OFENFNLM@QR?$AA@   004adc64     lapack:ilaenv.obj
 0002:00012c68       ??_C@_02PDPFNDMG@OR?$AA@   004adc68     lapack:ilaenv.obj
 0002:00012c6c       ??_C@_02PDDJEBNF@HE?$AA@   004adc6c     lapack:ilaenv.obj
 0002:00012c70       ??_C@_03GBPJMIMJ@TRD?$AA@  004adc70     lapack:ilaenv.obj
 0002:00012c74       ??_C@_02FDNFABJ@SY?$AA@    004adc74     lapack:ilaenv.obj
 0002:00012c78       ??_C@_03BEILMAIK@BRD?$AA@  004adc78     lapack:ilaenv.obj
 0002:00012c7c       ??_C@_03HLDGCAOO@HRD?$AA@  004adc7c     lapack:ilaenv.obj
 0002:00012c80       ??_C@_03HCKJNEAD@QLF?$AA@  004adc80     lapack:ilaenv.obj
 0002:00012c84       ??_C@_03MECEGLGC@LQF?$AA@  004adc84     lapack:ilaenv.obj
 0002:00012c88       ??_C@_03HEOCELMO@RQF?$AA@  004adc88     lapack:ilaenv.obj
 0002:00012c8c       ??_C@_03GEBBFKHJ@QRF?$AA@  004adc8c     lapack:ilaenv.obj
 0002:00012c90       ??_C@_02PIGFAGOI@GE?$AA@   004adc90     lapack:ilaenv.obj
 0002:00012c94       ??_C@_06PMOHLDGB@DORMBR?$AA@ 004adc94     lapack:dormbr.obj
 0002:00012c9c       ??_C@_06NNFEMNKI@DORMLQ?$AA@ 004adc9c     lapack:dormbr.obj
 0002:00012ca4       ??_C@_06OCIHKOEI@DORMQR?$AA@ 004adca4     lapack:dormbr.obj
 0002:00012cac       ??_C@_06BHPPPBI@DBDSQR?$AA@ 004adcac     lapack:dbdsqr.obj
 0002:00012cb4       ??_C@_06DIHGFJNJ@DLASCL?$AA@ 004adcb4     lapack:dlascl.obj
 0002:00012cc0       __real@c059000000000000    004adcc0     lapack:dlamch.obj
 0002:00012cc8       __real@3ca0000000000000    004adcc8     lapack:dlamch.obj
 0002:00012cd0       ??_C@_06MHKLDLFF@DORG2R?$AA@ 004adcd0     lapack:dorg2r.obj
 0002:00012cd8       ??_C@_06KBGAFKGO@DGEQR2?$AA@ 004adcd8     lapack:dgeqr2.obj
 0002:00012ce0       ??_C@_06INJBKBPA@DGETF2?$AA@ 004adce0     lapack:dgetf2.obj
 0002:00012ce8       __real@3fc0000000000000    004adce8     lapack:dsytf2.obj
 0002:00012cf0       __real@4031000000000000    004adcf0     lapack:dsytf2.obj
 0002:00012cf8       ??_C@_06LAMGJLPO@DSYTF2?$AA@ 004adcf8     lapack:dsytf2.obj
 0002:00012d00       ??_C@_06GFNCJJBF@SORG2R?$AA@ 004add00     lapack:sorg2r.obj
 0002:00012d08       ??_C@_06DBJPICO@SGEQR2?$AA@ 004add08     lapack:sgeqr2.obj
 0002:00012d10       ??_C@_06CPOIADLA@SGETF2?$AA@ 004add10     lapack:sgetf2.obj
 0002:00012d18       ??_C@_06BCLPDJLO@SSYTF2?$AA@ 004add18     lapack:ssytf2.obj
 0002:00012d20       ??_C@_06FOEALHOI@SORGL2?$AA@ 004add20     lapack:sorgl2.obj
 0002:00012d28       ??_C@_06KDCMMJDF@SGELQ2?$AA@ 004add28     lapack:sgelq2.obj
 0002:00012d30       ??_C@_03IPFLKIML@EPS?$AA@  004add30     lapack:slasv2.obj
 0002:00012d34       ??_C@_06EOKDBGHF@SLASR?5?$AA@ 004add34     lapack:slasr.obj
 0002:00012d3c       ??_C@_09DGDDLEAF@Precision?$AA@ 004add3c     lapack:slasq1.obj
 0002:00012d48       ??_C@_06BPDMILDM@SLASQ1?$AA@ 004add48     lapack:slasq1.obj
 0002:00012d50       ??_C@_06FJBONPJN@SGEBD2?$AA@ 004add50     lapack:sgebd2.obj
 0002:00012d58       ??_C@_06PMDJBFKI@DORGL2?$AA@ 004add58     lapack:dorgl2.obj
 0002:00012d60       ??_C@_06BFFGLHF@DGELQ2?$AA@ 004add60     lapack:dgelq2.obj
 0002:00012d68       ??_C@_06OMNKLEDF@DLASR?5?$AA@ 004add68     lapack:dlasr.obj
 0002:00012d70       ??_C@_06LNEFCJHM@DLASQ1?$AA@ 004add70     lapack:dlasq1.obj
 0002:00012d78       ??_C@_06PLGHHNNN@DGEBD2?$AA@ 004add78     lapack:dgebd2.obj
 0002:00012d80       __real@40000000            004add80     lapack:slarfp.obj
 0002:00012d84       ??_C@_06DBPNFHIM@SORML2?$AA@ 004add84     lapack:sorml2.obj
 0002:00012d8c       ??_C@_06KGPHJHB@SORM2R?$AA@ 004add8c     lapack:sorm2r.obj
 0002:00012d94       __real@80000000            004add94     lapack:slasq2.obj
 0002:00012d98       __real@3ff8000000000000    004add98     lapack:slasq2.obj
 0002:00012da0       ??_C@_06DEBBNIPP@SLASQ2?$AA@ 004adda0     lapack:slasq2.obj
 0002:00012da8       ??_C@_06FPAKKIH@SLASRT?$AA@ 004adda8     lapack:slasrt.obj
 0002:00012db0       ??_C@_06JDIEPFMM@DORML2?$AA@ 004addb0     lapack:dorml2.obj
 0002:00012db8       ??_C@_06KIBGNLDB@DORM2R?$AA@ 004addb8     lapack:dorm2r.obj
 0002:00012dc0       __real@8000000000000000    004addc0     lapack:dlasq2.obj
 0002:00012dc8       ??_C@_06JGGIHKLP@DLASQ2?$AA@ 004addc8     lapack:dlasq2.obj
 0002:00012dd0       ??_C@_06KHIJAIMH@DLASRT?$AA@ 004addd0     lapack:dlasrt.obj
 0002:00012dd8       __real@3ff028f5c0000000    004addd8     lapack:slasq4.obj
 0002:00012de0       __real@3f1020c5            004adde0     lapack:slasq4.obj
 0002:00012de8       __real@3ff0ccccc0000000    004adde8     lapack:slasq4.obj
 0002:00012df0       __real@3e800000            004addf0     lapack:slasq4.obj
 0002:00012df4       __real@3daa7efa            004addf4     lapack:slasq4.obj
 0002:00012df8       __real@3fd54fdf40000000    004addf8     lapack:slasq4.obj
 0002:00012e00       __real@3fe20418a0000000    004ade00     lapack:slasq4.obj
 0002:00012e08       __real@3ff028f5c28f5c29    004ade08     lapack:dlasq4.obj
 0002:00012e10       __real@3fb54fdf3b645a1d    004ade10     lapack:dlasq4.obj
 0002:00012e18       __real@3fd54fdf3b645a1d    004ade18     lapack:dlasq4.obj
 0002:00012e20       __real@3ff0cccccccccccd    004ade20     lapack:dlasq4.obj
 0002:00012e28       __real@3fe204189374bc6a    004ade28     lapack:dlasq4.obj
 0002:00012e30       ??_C@_05FCBNDMCB@s_cat?$AA@ 004ade30     libf2c:s_cat.obj
 0002:00012e38       ??_C@_07KBKBJNIB@startio?$AA@ 004ade38     libf2c:sfe.obj
 0002:00012e40       ??_C@_03PDOBAHOB@sfe?$AA@  004ade40     libf2c:sfe.obj
 0002:00012e44       ??_C@_0L@LKOGCJFH@bad?5string?$AA@ 004ade44     libf2c:fmt.obj
 0002:00012e50       ??_C@_0BJ@HKNOEPLO@format?5too?5complicated?3?6?$AA@ 004ade50     libf2c:fmt.obj
 0002:00012e6c       ??_C@_06OFKFICPK@do_fio?$AA@ 004ade6c     libf2c:fmt.obj
 0002:00012e74       ??_C@_0BP@DLJCNNMN@unknown?5code?5in?5do_fio?3?5?$CFd?6?$CFs?6?$AA@ 004ade74     libf2c:fmt.obj
 0002:00012e94       ??_C@_03MLKKGMLN@fmt?$AA@  004ade94     libf2c:fmt.obj
 0002:00012e98       ??_C@_0M@LLOFDJDD@write?5start?$AA@ 004ade98     libf2c:wsfe.obj
 0002:00012ea4       ??_C@_0BK@LENELDJB@malloc?$CI?$CFu?$CJ?5failure?5in?5?$CFs?6?$AA@ 004adea4     libf2c:f77_aloc.obj
 0002:00012ec0       ??_C@_0BA@MIHHOIHP@nmLbuf?5overflow?$AA@ 004adec0     libf2c:err.obj
 0002:00012ed0       ??_C@_0BL@PMBCONLF@non?9positive?5record?5number?$AA@ 004aded0     libf2c:err.obj
 0002:00012eec       ??_C@_0BF@LHBGFHAN@can?8t?5append?5to?5file?$AA@ 004adeec     libf2c:err.obj
 0002:00012f04       ??_C@_0BC@JPMNAOLL@?8new?8?5file?5exists?$AA@ 004adf04     libf2c:err.obj
 0002:00012f18       ??_C@_0BB@MOJIBHEM@can?8t?5write?5file?$AA@ 004adf18     libf2c:err.obj
 0002:00012f2c       ??_C@_0BA@FJNEHKOF@can?8t?5read?5file?$AA@ 004adf2c     libf2c:err.obj
 0002:00012f3c       ??_C@_0BI@BLHFDIEO@subscript?5out?5of?5bounds?$AA@ 004adf3c     libf2c:err.obj
 0002:00012f54       ??_C@_0BI@IDGNNOHP@substring?5out?5of?5bounds?$AA@ 004adf54     libf2c:err.obj
 0002:00012f6c       ??_C@_0BG@ONJFPJFJ@invalid?5array?5section?$AA@ 004adf6c     libf2c:err.obj
 0002:00012f84       ??_C@_0BO@OADDECON@subscript?5for?5scalar?5variable?$AA@ 004adf84     libf2c:err.obj
 0002:00012fa4       ??_C@_0BJ@KAHCHPBK@variable?5count?5incorrect?$AA@ 004adfa4     libf2c:err.obj
 0002:00012fc0       ??_C@_0O@IGBJJDPL@no?5end?5record?$AA@ 004adfc0     libf2c:err.obj
 0002:00012fd0       ??_C@_0BJ@EFDDKCOD@variable?5not?5in?5namelist?$AA@ 004adfd0     libf2c:err.obj
 0002:00012fec       ??_C@_0BC@BDACFEPL@bad?5namelist?5name?$AA@ 004adfec     libf2c:err.obj
 0002:00013000       ??_C@_0BC@IKOFPHAL@bad?5variable?5type?$AA@ 004ae000     libf2c:err.obj
 0002:00013014       ??_C@_0BI@GMMOALCN@bad?5logical?5input?5field?$AA@ 004ae014     libf2c:err.obj
 0002:0001302c       ??_C@_0BK@BGEIJAOF@read?5unexpected?5character?$AA@ 004ae02c     libf2c:err.obj
 0002:00013048       ??_C@_0BC@FIMMOFPK@out?5of?5free?5space?$AA@ 004ae048     libf2c:err.obj
 0002:0001305c       ??_C@_0BM@HIINPENA@incomprehensible?5list?5input?$AA@ 004ae05c     libf2c:err.obj
 0002:00013078       ??_C@_0BN@IFCHIACI@truncation?5failed?5in?5endfile?$AA@ 004ae078     libf2c:err.obj
 0002:00013098       ??_C@_0BC@NACJOLEA@off?5end?5of?5record?$AA@ 004ae098     libf2c:err.obj
 0002:000130ac       ??_C@_0BD@EJBIEFGI@unit?5not?5connected?$AA@ 004ae0ac     libf2c:err.obj
 0002:000130c0       ??_C@_0BA@GKHDNLCH@can?8t?5stat?5file?$AA@ 004ae0c0     libf2c:err.obj
 0002:000130d0       ??_C@_0P@FOGCLPMO@null?5file?5name?$AA@ 004ae0d0     libf2c:err.obj
 0002:000130e0       ??_C@_0BF@ONOKCBAC@can?8t?5backspace?5file?$AA@ 004ae0e0     libf2c:err.obj
 0002:000130f8       ??_C@_0BK@HGBOIIHM@sequential?5io?5not?5allowed?$AA@ 004ae0f8     libf2c:err.obj
 0002:00013114       ??_C@_0BG@GCGCPNFA@direct?5io?5not?5allowed?$AA@ 004ae114     libf2c:err.obj
 0002:0001312c       ??_C@_0BL@NMABKBDD@unformatted?5io?5not?5allowed?$AA@ 004ae12c     libf2c:err.obj
 0002:00013148       ??_C@_0BJ@EBLPPMHO@formatted?5io?5not?5allowed?$AA@ 004ae148     libf2c:err.obj
 0002:00013164       ??_C@_0BE@BOPLOGPO@illegal?5unit?5number?$AA@ 004ae164     libf2c:err.obj
 0002:00013178       ??_C@_0BA@ILBADFCH@error?5in?5format?$AA@ 004ae178     libf2c:err.obj
 0002:00013188       ??_C@_03HGCDGKFI@?5IO?$AA@ 004ae188     libf2c:err.obj
 0002:0001318c       ??_C@_0BD@PMLNGMPD@lately?5?$CFs?5?$CFs?5?$CFs?5?$CFs?$AA@ 004ae18c     libf2c:err.obj
 0002:000131a0       ??_C@_07EKMNMCED@writing?$AA@ 004ae1a0     libf2c:err.obj
 0002:000131a8       ??_C@_07CMOHHLII@reading?$AA@ 004ae1a8     libf2c:err.obj
 0002:000131b0       ??_C@_06LMLJGLPA@direct?$AA@ 004ae1b0     libf2c:err.obj
 0002:000131b8       ??_C@_0L@OGEPILOF@sequential?$AA@ 004ae1b8     libf2c:err.obj
 0002:000131c4       ??_C@_0M@FHMPJJD@unformatted?$AA@ 004ae1c4     libf2c:err.obj
 0002:000131d0       ??_C@_09CDGIBMFA@formatted?$AA@ 004ae1d0     libf2c:err.obj
 0002:000131dc       ??_C@_08LEPPLCNF@internal?$AA@ 004ae1dc     libf2c:err.obj
 0002:000131e8       ??_C@_08OIBPHJGN@external?$AA@ 004ae1e8     libf2c:err.obj
 0002:000131f4       ??_C@_0BB@BAHJEMGI@last?5format?3?5?$CFs?6?$AA@ 004ae1f4     libf2c:err.obj
 0002:00013208       ??_C@_0BO@NCJPLEGG@apparent?5state?3?5internal?5I?1O?6?$AA@ 004ae208     libf2c:err.obj
 0002:00013228       ??_C@_0L@FIMJNALL@?$CIunnamed?$CJ?6?$AA@ 004ae228     libf2c:err.obj
 0002:00013234       ??_C@_09GDDDODEC@named?5?$CFs?6?$AA@ 004ae234     libf2c:err.obj
 0002:00013240       ??_C@_0BJ@MOKPKBLA@apparent?5state?3?5unit?5?$CFd?5?$AA@ 004ae240     libf2c:err.obj
 0002:0001325c       ??_C@_0BN@GHNALNBA@?$CFs?3?5illegal?5error?5number?5?$CFd?6?$AA@ 004ae25c     libf2c:err.obj
 0002:0001327c       ??_C@_07KJFPOMFC@?$CFs?3?5?$CFs?6?$AA@ 004ae27c     libf2c:err.obj
 0002:00013284       ??_C@_0BB@NEPPMNKF@?$CFs?3?5end?5of?5file?6?$AA@ 004ae284     libf2c:err.obj
 0002:00013298       ??_C@_02CBLLGHLK@r?$CL?$AA@ 004ae298     libf2c:open.obj
 0002:0001329c       ??_C@_03HMFOOINA@r?$CLb?$AA@ 004ae29c     libf2c:open.obj
 0002:000132a0       ??_C@_01NOFIACDB@w?$AA@    004ae2a0     libf2c:open.obj
 0002:000132a4       ??_C@_02GMLFBBN@wb?$AA@    004ae2a4     libf2c:open.obj
 0002:000132a8       ??_C@_01KDCPPGHE@r?$AA@    004ae2a8     libf2c:open.obj
 0002:000132ac       ??_C@_02JDPG@rb?$AA@       004ae2ac     libf2c:open.obj
 0002:000132b0       ??_C@_0P@BOLAOBGL@malloc?5failure?$AA@ 004ae2b0     libf2c:open.obj
 0002:000132c0       ??_C@_08OOMENPLB@no?5space?$AA@ 004ae2c0     libf2c:open.obj
 0002:000132cc       ??_C@_08HNEBHNDD@fort?4?$CFld?$AA@ 004ae2cc     libf2c:open.obj
 0002:000132d8       ??_C@_04PMOCAHAA@open?$AA@ 004ae2d8     libf2c:open.obj
 0002:000132e0       ??_C@_01OMGOGALD@u?$AA@    004ae2e0     libf2c:open.obj
 0002:000132e4       ??_C@_01INIBCBCB@f?$AA@    004ae2e4     libf2c:open.obj
 0002:000132e8       ??_C@_01LPLHEDKD@d?$AA@    004ae2e8     libf2c:open.obj
 0002:000132ec       ??_C@_01LKDEMHDF@s?$AA@    004ae2ec     libf2c:open.obj
 0002:000132f0       ??_C@_03OFAPEBGM@?$CFs?6?$AA@ 004ae2f0     libf2c:sig_die.obj
 0002:000132f4       ??_C@_06NAOPDNEP@recend?$AA@ 004ae2f4     libf2c:wrtfmt.obj
 0002:000132fc       ??_C@_08JOAGLCNE@left?5off?$AA@ 004ae2fc     libf2c:wrtfmt.obj
 0002:00013308       ??_C@_0BL@KJGHIKGM@w_ed?0?5unexpected?5code?3?5?$CFd?6?$AA@ 004ae308     libf2c:wrtfmt.obj
 0002:00013324       ??_C@_0BM@MLAKKECL@w_ned?0?5unexpected?5code?3?5?$CFd?6?$AA@ 004ae324     libf2c:wrtfmt.obj
 0002:00013340       ??_C@_05MJNOJDJM@?$CF?$CL?42d?$AA@ 004ae340     libf2c:wref.obj
 0002:00013348       ??_C@_05GHAEDPHG@?$CF?$CD?4?$CKE?$AA@ 004ae348     libf2c:wref.obj
 0002:00013350       ??_C@_05NJKNEIBH@?$CF?$CD?4?$CKf?$AA@ 004ae350     libf2c:wref.obj
 0002:00013358       ??_C@_07EDCBGDHP@endfile?$AA@ 004ae358     libf2c:endfile.obj
 0002:00013380       ??_C@_0DH@EMOHNEGB@f?3?2dd?2vctools?2vc7libs?2ship?2atlmf@ 004ae380     mfcs90d:appmodul.obj
 0002:000133b8       ??_C@_06GGCLMIAG@SGEMV?5?$AA@ 004ae3b8     blas:sgemv.obj
 0002:000133c0       ??_C@_06MEFCGKEG@DGEMV?5?$AA@ 004ae3c0     blas:dgemv.obj
 0002:000133c8       ??_C@_06DDGFDNNM@DTRSM?5?$AA@ 004ae3c8     blas:dtrsm.obj
 0002:000133d0       ??_C@_06OFIBCHKC@DSYRK?5?$AA@ 004ae3d0     blas:dsyrk.obj
 0002:000133d8       ??_C@_06JMFEDJGN@DGER?5?5?$AA@ 004ae3d8     blas:dger.obj
 0002:000133e0       ??_C@_06JBBMJPJM@STRSM?5?$AA@ 004ae3e0     blas:strsm.obj
 0002:000133e8       ??_C@_06EHPIIFOC@SSYRK?5?$AA@ 004ae3e8     blas:ssyrk.obj
 0002:000133f0       ??_C@_06DOCNJLCN@SGER?5?5?$AA@ 004ae3f0     blas:sger.obj
 0002:000133f8       ??_C@_06IDKDBNHA@DTRMM?5?$AA@ 004ae3f8     blas:dtrmm.obj
 0002:00013400       ??_C@_06JDNAFBOB@DTRMV?5?$AA@ 004ae400     blas:dtrmv.obj
 0002:00013408       ??_C@_06KBADADGD@DSYR?5?5?$AA@ 004ae408     blas:dsyr.obj
 0002:00013410       ??_C@_06CBNKLPDA@STRMM?5?$AA@ 004ae410     blas:strmm.obj
 0002:00013418       ??_C@_06DBKJPDKB@STRMV?5?$AA@ 004ae418     blas:strmv.obj
 0002:00013420       ??_C@_06DHKKBCD@SSYR?5?5?$AA@ 004ae420     blas:ssyr.obj
 0002:00013428       __load_config_used         004ae428     msvcrtd:loadcfg.obj
 0002:000141ec       ??_R4CMgmotorctrl1@@6B@    004af1ec     APTMotor.obj
 0002:00014204       ??_R3CMgmotorctrl1@@8      004af204     APTMotor.obj
 0002:00014218       ??_R2CMgmotorctrl1@@8      004af218     APTMotor.obj
 0002:0001422c       ??_R1A@?0A@EA@CMgmotorctrl1@@8 004af22c     APTMotor.obj
 0002:00014250       ??_R1A@?0A@EA@CWnd@@8      004af250     APTMotor.obj
 0002:00014274       ??_R3CWnd@@8               004af274     APTMotor.obj
 0002:00014288       ??_R2CWnd@@8               004af288     APTMotor.obj
 0002:00014298       ??_R1A@?0A@EA@CCmdTarget@@8 004af298     APTMotor.obj
 0002:000142bc       ??_R3CCmdTarget@@8         004af2bc     APTMotor.obj
 0002:000142d0       ??_R2CCmdTarget@@8         004af2d0     APTMotor.obj
 0002:000142dc       ??_R1A@?0A@EA@CObject@@8   004af2dc     APTMotor.obj
 0002:00014300       ??_R3CObject@@8            004af300     APTMotor.obj
 0002:00014314       ??_R2CObject@@8            004af314     APTMotor.obj
 0002:0001431c       ??_R4Thank_you@Define_the_symbol__ATL_MIXED@@6B@ 004af31c     APTMotor.obj
 0002:00014334       ??_R3Thank_you@Define_the_symbol__ATL_MIXED@@8 004af334     APTMotor.obj
 0002:00014348       ??_R2Thank_you@Define_the_symbol__ATL_MIXED@@8 004af348     APTMotor.obj
 0002:00014350       ??_R1A@?0A@EA@Thank_you@Define_the_symbol__ATL_MIXED@@8 004af350     APTMotor.obj
 0002:00014374       ??_R4APT_system@@6B@       004af374     APTSystem.obj
 0002:0001438c       ??_R3APT_system@@8         004af38c     APTSystem.obj
 0002:000143a0       ??_R2APT_system@@8         004af3a0     APTSystem.obj
 0002:000143b4       ??_R1A@?0A@EA@APT_system@@8 004af3b4     APTSystem.obj
 0002:000143d8       ??_R4DisplayDialog@@6B@    004af3d8     DisplayDialog.obj
 0002:000143f0       ??_R3DisplayDialog@@8      004af3f0     DisplayDialog.obj
 0002:00014404       ??_R2DisplayDialog@@8      004af404     DisplayDialog.obj
 0002:00014420       ??_R1A@?0A@EA@DisplayDialog@@8 004af420     DisplayDialog.obj
 0002:00014444       ??_R1A@?0A@EA@CDialog@@8   004af444     DisplayDialog.obj
 0002:00014468       ??_R3CDialog@@8            004af468     DisplayDialog.obj
 0002:0001447c       ??_R2CDialog@@8            004af47c     DisplayDialog.obj
 0002:00014490       ??_R4CMainFrame@@6B@       004af490     MainFrm.obj
 0002:000144a8       ??_R3CMainFrame@@8         004af4a8     MainFrm.obj
 0002:000144bc       ??_R2CMainFrame@@8         004af4bc     MainFrm.obj
 0002:000144d8       ??_R1A@?0A@EA@CMainFrame@@8 004af4d8     MainFrm.obj
 0002:000144fc       ??_R1A@?0A@EA@CFrameWnd@@8 004af4fc     MainFrm.obj
 0002:00014520       ??_R3CFrameWnd@@8          004af520     MainFrm.obj
 0002:00014534       ??_R2CFrameWnd@@8          004af534     MainFrm.obj
 0002:00014548       ??_R4COctopusApp@@6B@      004af548     Octopus.obj
 0002:00014560       ??_R3COctopusApp@@8        004af560     Octopus.obj
 0002:00014574       ??_R2COctopusApp@@8        004af574     Octopus.obj
 0002:00014590       ??_R1A@?0A@EA@COctopusApp@@8 004af590     Octopus.obj
 0002:000145b4       ??_R1A@?0A@EA@CWinApp@@8   004af5b4     Octopus.obj
 0002:000145d8       ??_R3CWinApp@@8            004af5d8     Octopus.obj
 0002:000145ec       ??_R2CWinApp@@8            004af5ec     Octopus.obj
 0002:00014600       ??_R1A@?0A@EA@CWinThread@@8 004af600     Octopus.obj
 0002:00014624       ??_R3CWinThread@@8         004af624     Octopus.obj
 0002:00014638       ??_R2CWinThread@@8         004af638     Octopus.obj
 0002:00014648       ??_R4Octopus_LED@@6B@      004af648     Octopus_LED.obj
 0002:00014660       ??_R3Octopus_LED@@8        004af660     Octopus_LED.obj
 0002:00014674       ??_R2Octopus_LED@@8        004af674     Octopus_LED.obj
 0002:00014690       ??_R1A@?0A@EA@Octopus_LED@@8 004af690     Octopus_LED.obj
 0002:000146b4       ??_R4COctopusPictureDisplay@@6B@ 004af6b4     OctopusCameraDisplay.obj
 0002:000146cc       ??_R3COctopusPictureDisplay@@8 004af6cc     OctopusCameraDisplay.obj
 0002:000146e0       ??_R2COctopusPictureDisplay@@8 004af6e0     OctopusCameraDisplay.obj
 0002:000146fc       ??_R1A@?0A@EA@COctopusPictureDisplay@@8 004af6fc     OctopusCameraDisplay.obj
 0002:00014720       ??_R4COctopusCamera@@6B@   004af720     OctopusCameraDlg.obj
 0002:00014738       ??_R3COctopusCamera@@8     004af738     OctopusCameraDlg.obj
 0002:0001474c       ??_R2COctopusCamera@@8     004af74c     OctopusCameraDlg.obj
 0002:00014768       ??_R1A@?0A@EA@COctopusCamera@@8 004af768     OctopusCameraDlg.obj
 0002:0001478c       ??_R4COctopusGoodClock@@6B@ 004af78c     OctopusClock.obj
 0002:000147a4       ??_R3COctopusGoodClock@@8  004af7a4     OctopusClock.obj
 0002:000147b8       ??_R2COctopusGoodClock@@8  004af7b8     OctopusClock.obj
 0002:000147c0       ??_R1A@?0A@EA@COctopusGoodClock@@8 004af7c0     OctopusClock.obj
 0002:000147e4       ??_R4COctopusDoc@@6B@      004af7e4     OctopusDoc.obj
 0002:000147fc       ??_R3COctopusDoc@@8        004af7fc     OctopusDoc.obj
 0002:00014810       ??_R2COctopusDoc@@8        004af810     OctopusDoc.obj
 0002:00014824       ??_R1A@?0A@EA@COctopusDoc@@8 004af824     OctopusDoc.obj
 0002:00014848       ??_R1A@?0A@EA@CDocument@@8 004af848     OctopusDoc.obj
 0002:0001486c       ??_R3CDocument@@8          004af86c     OctopusDoc.obj
 0002:00014880       ??_R2CDocument@@8          004af880     OctopusDoc.obj
 0002:00014890       ??_R4COctopusFocus@@6B@    004af890     OctopusFocus.obj
 0002:000148a8       ??_R3COctopusFocus@@8      004af8a8     OctopusFocus.obj
 0002:000148bc       ??_R2COctopusFocus@@8      004af8bc     OctopusFocus.obj
 0002:000148d8       ??_R1A@?0A@EA@COctopusFocus@@8 004af8d8     OctopusFocus.obj
 0002:000148fc       ??_R4COctopusGrating@@6B@  004af8fc     OctopusGrating.obj
 0002:00014914       ??_R3COctopusGrating@@8    004af914     OctopusGrating.obj
 0002:00014928       ??_R2COctopusGrating@@8    004af928     OctopusGrating.obj
 0002:00014944       ??_R1A@?0A@EA@COctopusGrating@@8 004af944     OctopusGrating.obj
 0002:00014968       ??_R4OctopusLaser@@6B@     004af968     OctopusLaser.obj
 0002:00014980       ??_R3OctopusLaser@@8       004af980     OctopusLaser.obj
 0002:00014994       ??_R2OctopusLaser@@8       004af994     OctopusLaser.obj
 0002:000149b0       ??_R1A@?0A@EA@OctopusLaser@@8 004af9b0     OctopusLaser.obj
 0002:000149d4       ??_R4COctopusLasers@@6B@   004af9d4     OctopusLasers.obj
 0002:000149ec       ??_R3COctopusLasers@@8     004af9ec     OctopusLasers.obj
 0002:00014a00       ??_R2COctopusLasers@@8     004afa00     OctopusLasers.obj
 0002:00014a1c       ??_R1A@?0A@EA@COctopusLasers@@8 004afa1c     OctopusLasers.obj
 0002:00014a40       ??_R4COctopusObjectivePiezo@@6B@ 004afa40     OctopusObjectivePiezo.obj
 0002:00014a58       ??_R3COctopusObjectivePiezo@@8 004afa58     OctopusObjectivePiezo.obj
 0002:00014a6c       ??_R2COctopusObjectivePiezo@@8 004afa6c     OctopusObjectivePiezo.obj
 0002:00014a88       ??_R1A@?0A@EA@COctopusObjectivePiezo@@8 004afa88     OctopusObjectivePiezo.obj
 0002:00014aac       ??_R4COctopusPolarizer@@6B@ 004afaac     OctopusPolarizer.obj
 0002:00014ac4       ??_R3COctopusPolarizer@@8  004afac4     OctopusPolarizer.obj
 0002:00014ad8       ??_R2COctopusPolarizer@@8  004afad8     OctopusPolarizer.obj
 0002:00014af4       ??_R1A@?0A@EA@COctopusPolarizer@@8 004afaf4     OctopusPolarizer.obj
 0002:00014b18       ??_R4COctopusScope@@6B@    004afb18     OctopusScope.obj
 0002:00014b30       ??_R3COctopusScope@@8      004afb30     OctopusScope.obj
 0002:00014b44       ??_R2COctopusScope@@8      004afb44     OctopusScope.obj
 0002:00014b60       ??_R1A@?0A@EA@COctopusScope@@8 004afb60     OctopusScope.obj
 0002:00014b84       ??_R4COctopusScript@@6B@   004afb84     OctopusScript.obj
 0002:00014b9c       ??_R3COctopusScript@@8     004afb9c     OctopusScript.obj
 0002:00014bb0       ??_R2COctopusScript@@8     004afbb0     OctopusScript.obj
 0002:00014bcc       ??_R1A@?0A@EA@COctopusScript@@8 004afbcc     OctopusScript.obj
 0002:00014bf0       ??_R4COctopusShutterAndWheel@@6B@ 004afbf0     OctopusShutter.obj
 0002:00014c08       ??_R3COctopusShutterAndWheel@@8 004afc08     OctopusShutter.obj
 0002:00014c1c       ??_R2COctopusShutterAndWheel@@8 004afc1c     OctopusShutter.obj
 0002:00014c38       ??_R1A@?0A@EA@COctopusShutterAndWheel@@8 004afc38     OctopusShutter.obj
 0002:00014c5c       ??_R4COctopusStage545@@6B@ 004afc5c     OctopusStage545.obj
 0002:00014c74       ??_R3COctopusStage545@@8   004afc74     OctopusStage545.obj
 0002:00014c88       ??_R2COctopusStage545@@8   004afc88     OctopusStage545.obj
 0002:00014ca4       ??_R1A@?0A@EA@COctopusStage545@@8 004afca4     OctopusStage545.obj
 0002:00014cc8       ??_R4COctopusView@@6B@     004afcc8     OctopusView.obj
 0002:00014ce0       ??_R3COctopusView@@8       004afce0     OctopusView.obj
 0002:00014cf4       ??_R2COctopusView@@8       004afcf4     OctopusView.obj
 0002:00014d18       ??_R1A@?0A@EA@COctopusView@@8 004afd18     OctopusView.obj
 0002:00014d3c       ??_R1A@?0A@EA@CFormView@@8 004afd3c     OctopusView.obj
 0002:00014d60       ??_R3CFormView@@8          004afd60     OctopusView.obj
 0002:00014d74       ??_R2CFormView@@8          004afd74     OctopusView.obj
 0002:00014d94       ??_R1A@?0A@EA@CScrollView@@8 004afd94     OctopusView.obj
 0002:00014db8       ??_R3CScrollView@@8        004afdb8     OctopusView.obj
 0002:00014dcc       ??_R2CScrollView@@8        004afdcc     OctopusView.obj
 0002:00014de8       ??_R1A@?0A@EA@CView@@8     004afde8     OctopusView.obj
 0002:00014e0c       ??_R3CView@@8              004afe0c     OctopusView.obj
 0002:00014e20       ??_R2CView@@8              004afe20     OctopusView.obj
 0002:00014e34       ??_R4type_info@@6B@        004afe34     msvcrtd:ti_inst.obj
 0002:00014e48       ??_R3type_info@@8          004afe48     msvcrtd:ti_inst.obj
 0002:00014e58       ??_R2type_info@@8          004afe58     msvcrtd:ti_inst.obj
 0002:00014e60       ??_R1A@?0A@EA@type_info@@8 004afe60     msvcrtd:ti_inst.obj
 0002:00014fe0       ___safe_se_handler_table   004affe0     <linker-defined>
 0002:000152bc       ___rtc_iaa                 004b02bc     msvcrtd:_initsect_.obj
 0002:000153c0       ___rtc_izz                 004b03c0     msvcrtd:_initsect_.obj
 0002:000154c4       ___rtc_taa                 004b04c4     msvcrtd:_initsect_.obj
 0002:000155c8       ___rtc_tzz                 004b05c8     msvcrtd:_initsect_.obj
 0002:00017094       __TI1?AVCAtlException@ATL@@ 004b2094     atlsd:Externs.obj
 0002:000170a4       __CTA1?AVCAtlException@ATL@@ 004b20a4     atlsd:Externs.obj
 0002:000170ac       __CT??_R0?AVCAtlException@ATL@@@84 004b20ac     atlsd:Externs.obj
 0002:00017490       ___pobjMapEntryFirst       004b2490     mfcs90d:nolib.obj
 0002:00017594       ___pobjMapEntryLast        004b2594     mfcs90d:nolib.obj
 0003:00000000       __pIncludeInitManaged      004b3000     APTMotor.obj
 0003:00000004       ??_R0?AVCMgmotorctrl1@@@8  004b3004     APTMotor.obj
 0003:00000028       ??_R0?AVCWnd@@@8           004b3028     APTMotor.obj
 0003:00000040       ??_R0?AVCCmdTarget@@@8     004b3040     APTMotor.obj
 0003:00000060       ??_R0?AVCObject@@@8        004b3060     APTMotor.obj
 0003:0000007c       ??_R0?AUThank_you@Define_the_symbol__ATL_MIXED@@@8 004b307c     APTMotor.obj
 0003:000000bc       ??_R0?AVAPT_system@@@8     004b30bc     APTSystem.obj
 0003:000000dc       ??_R0?AVDisplayDialog@@@8  004b30dc     DisplayDialog.obj
 0003:00000100       ??_R0?AVCDialog@@@8        004b3100     DisplayDialog.obj
 0003:0000011c       ??_R0?AVCMainFrame@@@8     004b311c     MainFrm.obj
 0003:0000013c       ??_R0?AVCFrameWnd@@@8      004b313c     MainFrm.obj
 0003:00000158       ??_R0?AVCOctopusApp@@@8    004b3158     Octopus.obj
 0003:00000178       ??_R0?AVCWinApp@@@8        004b3178     Octopus.obj
 0003:00000194       ??_R0?AVCWinThread@@@8     004b3194     Octopus.obj
 0003:000001b4       ??_R0?AVOctopus_LED@@@8    004b31b4     Octopus_LED.obj
 0003:000001d8       ??_R0?AVCOctopusPictureDisplay@@@8 004b31d8     OctopusCameraDisplay.obj
 0003:00000204       ??_R0?AVCOctopusCamera@@@8 004b3204     OctopusCameraDlg.obj
 0003:00000228       ??_R0?AVCOctopusGoodClock@@@8 004b3228     OctopusClock.obj
 0003:00000250       ??_R0?AVCOctopusDoc@@@8    004b3250     OctopusDoc.obj
 0003:00000270       ??_R0?AVCDocument@@@8      004b3270     OctopusDoc.obj
 0003:0000028c       ??_R0?AVCOctopusFocus@@@8  004b328c     OctopusFocus.obj
 0003:000002b0       ??_R0?AVCOctopusGrating@@@8 004b32b0     OctopusGrating.obj
 0003:000002d4       ??_R0?AVOctopusLaser@@@8   004b32d4     OctopusLaser.obj
 0003:000002f4       ??_R0?AVCOctopusLasers@@@8 004b32f4     OctopusLasers.obj
 0003:00000318       ?parms@?1??SC_Enable@CMgmotorctrl1@@QAEJJ@Z@4PAEA 004b3318     OctopusLasers.obj
 0003:0000031c       ?parms@?1??SC_Disable@CMgmotorctrl1@@QAEJJ@Z@4PAEA 004b331c     OctopusLasers.obj
 0003:00000320       ?parms@?1??SC_SetOperatingMode@CMgmotorctrl1@@QAEJJJ@Z@4PAEA 004b3320     OctopusLasers.obj
 0003:00000324       ??_R0?AVCOctopusObjectivePiezo@@@8 004b3324     OctopusObjectivePiezo.obj
 0003:00000350       ??_R0?AVCOctopusPolarizer@@@8 004b3350     OctopusPolarizer.obj
 0003:00000378       ?parms@?1??MoveRelativeEnc@CMgmotorctrl1@@QAEJJMMJH@Z@4PAEA 004b3378     OctopusPolarizer.obj
 0003:00000380       ?parms@?1??MoveAbsoluteEnc@CMgmotorctrl1@@QAEJJMMJH@Z@4PAEA 004b3380     OctopusPolarizer.obj
 0003:00000388       ?parms@?1??MoveHome@CMgmotorctrl1@@QAEJJH@Z@4PAEA 004b3388     OctopusPolarizer.obj
 0003:0000038c       ?parms@?1??SetVelParams@CMgmotorctrl1@@QAEJJMMM@Z@4PAEA 004b338c     OctopusPolarizer.obj
 0003:00000394       ?parms@?1??SetBLashDist@CMgmotorctrl1@@QAEJJM@Z@4PAEA 004b3394     OctopusPolarizer.obj
 0003:00000398       ?parms@?1??SetRotStageModes@CMgmotorctrl1@@QAEJJJJ@Z@4PAEA 004b3398     OctopusPolarizer.obj
 0003:0000039c       ?parms@?1??GetPosition@CMgmotorctrl1@@QAEJJPAM@Z@4PAEA 004b339c     OctopusPolarizer.obj
 0003:000003a0       ??_R0?AVCOctopusScope@@@8  004b33a0     OctopusScope.obj
 0003:000003c4       ??_R0?AVCOctopusScript@@@8 004b33c4     OctopusScript.obj
 0003:000003e8       ??_R0?AVCOctopusShutterAndWheel@@@8 004b33e8     OctopusShutter.obj
 0003:00000418       ??_R0?AVCOctopusStage545@@@8 004b3418     OctopusStage545.obj
 0003:00000440       ?glob_m_pGoodClock@@3PAVCOctopusGoodClock@@A 004b3440     OctopusView.obj
 0003:00000444       ?glob_m_pLog@@3PAVCOctopusLog@@A 004b3444     OctopusView.obj
 0003:0000044c       ??_R0?AVCOctopusView@@@8   004b344c     OctopusView.obj
 0003:0000046c       ??_R0?AVCFormView@@@8      004b346c     OctopusView.obj
 0003:00000488       ??_R0?AVCScrollView@@@8    004b3488     OctopusView.obj
 0003:000004a8       ??_R0?AVCView@@@8          004b34a8     OctopusView.obj
 0003:000004dc       ___security_cookie         004b34dc     msvcrtd:gs_cookie.obj
 0003:000004e0       ___security_cookie_complement 004b34e0     msvcrtd:gs_cookie.obj
 0003:000004e4       ??_R0?AVtype_info@@@8      004b34e4     msvcrtd:ti_inst.obj
 0003:00000500       ___globallocalestatus      004b3500     msvcrtd:xthdloc.obj
 0003:00000504       ___defaultmatherr          004b3504     msvcrtd:merr.obj
 0003:00000508       ___native_dllmain_reason   004b3508     msvcrtd:natstart.obj
 0003:0000050c       ___native_vcclrit_reason   004b350c     msvcrtd:natstart.obj
 0003:00000510       ?g_pszUpdateEventName@@3PBDB 004b3510     atlsd:Externs.obj
 0003:00000514       ?g_pszAllocFileMapName@@3PBDB 004b3514     atlsd:Externs.obj
 0003:00000518       ?g_pszKernelObjFmt@@3PBDB  004b3518     atlsd:Externs.obj
 0003:0000051c       ??_R0?AVCAtlException@ATL@@@8 004b351c     atlsd:Externs.obj
 0003:00000b88       _F_err                     004b3b88     libf2c:err.obj
 0003:00000c08       _f__r_mode                 004b3c08     libf2c:open.obj
 0003:00000c10       _f__w_mode                 004b3c10     libf2c:open.obj
 0003:00000c24       _f__buflen                 004b3c24     libf2c:open.obj
 0003:00000c40       _My_ctype                  004b3c40     libf2c:ctype.obj
 0003:00001040       ?s_pfnPrevHook@CNoUIAssertHook@ATL@@0P6AHHPADPAH@ZA 004b4040     APTMotor.obj
 0003:00001044       ?m_bInitFailed@CAtlBaseModule@ATL@@2_NA 004b4044     APTMotor.obj
 0003:00001048       ?s_pLog@CFixedStringMgr@ATL@@2PAVIFixedStringLog@2@A 004b4048     APTMotor.obj
 0003:0000104c       ?clash@Define_the_symbol__ATL_MIXED@@3UThank_you@1@A 004b404c     APTMotor.obj
 0003:00001050       ?clash@Inconsistent_definition_of_symbol__ATL_MIXED@@3U_Please_define_it_the_same_throughout_your_project@1@A 004b4050     APTMotor.obj
 0003:00001058       ?theApp@@3VCOctopusApp@@A  004b4058     Octopus.obj
 0003:0000111c       ?glob_m_pPictureDisplay@@3PAVCOctopusPictureDisplay@@A 004b411c     OctopusCameraDlg.obj
 0003:00001120       ?saved_joystick_states@@3PAHA 004b4120     OctopusStage545.obj
 0003:00001124       ?joystick_ids@@3PAHA       004b4124     OctopusStage545.obj
 0003:00001130       ?glob_m_pCamera@@3PAVCOctopusCamera@@A 004b4130     OctopusView.obj
 0003:00001134       ?glob_m_pShutterAndWheel@@3PAVCOctopusShutterAndWheel@@A 004b4134     OctopusView.obj
 0003:00001138       ?glob_m_pScript@@3PAVCOctopusScript@@A 004b4138     OctopusView.obj
 0003:0000113c       ?glob_m_pLED@@3PAVOctopus_LED@@A 004b413c     OctopusView.obj
 0003:00001140       ?glob_m_pStage545@@3PAVCOctopusStage545@@A 004b4140     OctopusView.obj
 0003:00001144       ?glob_m_pObjPiezo@@3PAVCOctopusObjectivePiezo@@A 004b4144     OctopusView.obj
 0003:00001148       ?glob_m_pGrating@@3PAVCOctopusGrating@@A 004b4148     OctopusView.obj
 0003:0000114c       ?glob_m_pFocus@@3PAVCOctopusFocus@@A 004b414c     OctopusView.obj
 0003:00001150       ?glob_m_pLasers@@3PAVOctopusLaser@@A 004b4150     OctopusView.obj
 0003:00001154       ?glob_m_pPolarizer@@3PAVCOctopusPolarizer@@A 004b4154     OctopusView.obj
 0003:00001158       ?glob_m_pScope@@3PAVCOctopusScope@@A 004b4158     OctopusView.obj
 0003:00001160       ?GoodClock@@3VCOctopusGoodClock@@A 004b4160     OctopusView.obj
 0003:00001188       ?Log@@3VCOctopusLog@@A     004b4188     OctopusView.obj
 0003:00001198       ?B@@3UCOctopusGlobals@@A   004b4198     OctopusView.obj
 0003:000014bc       ?_pAtlAutoThreadModule@ATL@@3PAUIAtlAutoThreadModule@1@A 004b44bc     mfcs90d:nolib.obj
 0003:000014c0       __afxForceEXCLUDE          004b44c0     mfcs90d:nolib.obj
 0003:000014c4       ?_pPerfRegFunc@ATL@@3P6AJPAUHINSTANCE__@@@ZA 004b44c4     mfcs90d:nolib.obj
 0003:000014c8       ?_pPerfUnRegFunc@ATL@@3P6AJXZA 004b44c8     mfcs90d:nolib.obj
 0003:000014cc       ?_AtlRegisterPerUser@ATL@@3_NA 004b44cc     mfcs90d:nolib.obj
 0003:000014d0       ?_pAtlModule@ATL@@3PAVCAtlModule@1@A 004b44d0     mfcs90d:nolib.obj
 0003:000014d4       ?m_libid@CAtlModule@ATL@@2U_GUID@@A 004b44d4     mfcs90d:nolib.obj
 0003:000014e4       ?_pModule@ATL@@3PAVCComModule@1@A 004b44e4     mfcs90d:nolib.obj
 0003:000014e8       ?ATL_CREATE_OBJECT@CComApartment@ATL@@2IA 004b44e8     mfcs90d:nolib.obj
 0003:000014ec       ?WM_DESTROYMODELESS@CDHtmlDialog@@1IA 004b44ec     mfcs90d:nolib.obj
 0003:000014f0       __afxForceSTDAFX           004b44f0     mfcs90d:stdafx.obj
 0003:0000183c       __commode                  004b483c     msvcrtd:xncommod.obj
 0003:00001840       __fmode                    004b4840     msvcrtd:xtxtmode.obj
 0003:00001844       __dowildcard               004b4844     msvcrtd:wildcard.obj
 0003:00001848       __newmode                  004b4848     msvcrtd:_newmode.obj
 0003:0000184c       ?g_Allocator@@3VCAtlAllocator@@A 004b484c     atlsd:Externs.obj
 0003:00001880       ?s_trace@CTrace@ATL@@2V12@A 004b4880     atlsd:Externs.obj
 0003:00001888       ?atlTraceGeneral@ATL@@3VCTraceCategory@1@A 004b4888     atlsd:atltrace.obj
 0003:0000188c       ?atlTraceCOM@ATL@@3VCTraceCategory@1@A 004b488c     atlsd:atltrace.obj
 0003:00001890       ?atlTraceQI@ATL@@3VCTraceCategory@1@A 004b4890     atlsd:atltrace.obj
 0003:00001894       ?atlTraceRegistrar@ATL@@3VCTraceCategory@1@A 004b4894     atlsd:atltrace.obj
 0003:00001898       ?atlTraceRefcount@ATL@@3VCTraceCategory@1@A 004b4898     atlsd:atltrace.obj
 0003:0000189c       ?atlTraceWindowing@ATL@@3VCTraceCategory@1@A 004b489c     atlsd:atltrace.obj
 0003:000018a0       ?atlTraceControls@ATL@@3VCTraceCategory@1@A 004b48a0     atlsd:atltrace.obj
 0003:000018a4       ?atlTraceHosting@ATL@@3VCTraceCategory@1@A 004b48a4     atlsd:atltrace.obj
 0003:000018a8       ?atlTraceDBClient@ATL@@3VCTraceCategory@1@A 004b48a8     atlsd:atltrace.obj
 0003:000018ac       ?atlTraceDBProvider@ATL@@3VCTraceCategory@1@A 004b48ac     atlsd:atltrace.obj
 0003:000018b0       ?atlTraceSnapin@ATL@@3VCTraceCategory@1@A 004b48b0     atlsd:atltrace.obj
 0003:000018b4       ?atlTraceNotImpl@ATL@@3VCTraceCategory@1@A 004b48b4     atlsd:atltrace.obj
 0003:000018b8       ?atlTraceAllocation@ATL@@3VCTraceCategory@1@A 004b48b8     atlsd:atltrace.obj
 0003:000018bc       ?atlTraceException@ATL@@3VCTraceCategory@1@A 004b48bc     atlsd:atltrace.obj
 0003:000018c0       ?atlTraceTime@ATL@@3VCTraceCategory@1@A 004b48c0     atlsd:atltrace.obj
 0003:000018c4       ?atlTraceCache@ATL@@3VCTraceCategory@1@A 004b48c4     atlsd:atltrace.obj
 0003:000018c8       ?atlTraceStencil@ATL@@3VCTraceCategory@1@A 004b48c8     atlsd:atltrace.obj
 0003:000018cc       ?atlTraceString@ATL@@3VCTraceCategory@1@A 004b48cc     atlsd:atltrace.obj
 0003:000018d0       ?atlTraceMap@ATL@@3VCTraceCategory@1@A 004b48d0     atlsd:atltrace.obj
 0003:000018d4       ?atlTraceUtil@ATL@@3VCTraceCategory@1@A 004b48d4     atlsd:atltrace.obj
 0003:000018d8       ?atlTraceSecurity@ATL@@3VCTraceCategory@1@A 004b48d8     atlsd:atltrace.obj
 0003:000018dc       ?atlTraceSync@ATL@@3VCTraceCategory@1@A 004b48dc     atlsd:atltrace.obj
 0003:000018e0       ?atlTraceISAPI@ATL@@3VCTraceCategory@1@A 004b48e0     atlsd:atltrace.obj
 0003:000018e4       ?atlTraceUser@ATL@@3VCTraceCategory@1@A 004b48e4     atlsd:atltrace.obj
 0003:000018e8       ?atlTraceUser2@ATL@@3VCTraceCategory@1@A 004b48e8     atlsd:atltrace.obj
 0003:000018ec       ?atlTraceUser3@ATL@@3VCTraceCategory@1@A 004b48ec     atlsd:atltrace.obj
 0003:000018f0       ?atlTraceUser4@ATL@@3VCTraceCategory@1@A 004b48f0     atlsd:atltrace.obj
 0003:00002eb4       ?_afxInitAppState@@3DA     004b5eb4     mfcs90d:appmodul.obj
 0003:00002eb8       _f__sequential             004b5eb8     <common>
 0003:000031f8       _f__donewrec               004b61f8     <common>
 0003:000031fc       _f__putn                   004b61fc     <common>
 0003:00003200       _f__formatted              004b6200     <common>
 0003:00003204       _f__doend                  004b6204     <common>
 0003:00003208       _f__curunit                004b6208     <common>
 0003:0000320c       _f__scale                  004b620c     <common>
 0003:00003210       _f__cursor                 004b6210     <common>
 0003:00003214       _f__cblank                 004b6214     <common>
 0003:00003218       _f__reading                004b6218     <common>
 0003:0000321c       _f__fmtbuf                 004b621c     <common>
 0003:00003220       _f__svic                   004b6220     <common>
 0003:00003224       _f__doned                  004b6224     <common>
 0003:00003228       _f__getn                   004b6228     <common>
 0003:0000322c       _f__elist                  004b622c     <common>
 0003:00003230       _f__external               004b6230     <common>
 0003:00003240       _f__units                  004b6240     <common>
 0003:000041e0       _f__icptr                  004b71e0     <common>
 0003:000041e4       _f__init                   004b71e4     <common>
 0003:000041e8       _f__cplus                  004b71e8     <common>
 0003:000041ec       _f__doed                   004b71ec     <common>
 0003:000041f0       _f__recpos                 004b71f0     <common>
 0003:000041f4       _f__dorevert               004b71f4     <common>
 0003:000041f8       _f__hiwater                004b71f8     <common>
 0003:000041fc       _f__cf                     004b71fc     <common>
 0003:00004200       _f__ret                    004b7200     <common>
 0003:00004248       _f__nonl                   004b7248     <common>
 0003:0000424c       _f__revloc                 004b724c     <common>
 0003:00004250       _f__workdone               004b7250     <common>
 0003:00004254       _f__pc                     004b7254     <common>
 0003:00004258       _f__parenlvl               004b7258     <common>
 0003:0000425c       _f__rp                     004b725c     <common>
 0003:00004260       _f__cnt                    004b7260     <common>
 0003:00004288       _f__cp                     004b7288     <common>
 0003:0000428c       ___native_startup_state    004b728c     <common>
 0003:0000429c       ___native_startup_lock     004b729c     <common>
 0003:000042a0       __adjust_fdiv              004b72a0     <common>
 0003:000042ac       ___sse2_available          004b72ac     <common>
 0003:000042b8       ___dyn_tls_init_callback   004b72b8     <common>
 0003:000042bc       ___onexitend               004b72bc     <common>
 0003:000042cc       ___onexitbegin             004b72cc     <common>
 0004:00000000       __IMPORT_DESCRIPTOR_PI_GCS2_DLL 004b8000     PI_GCS2_DLL:PI_GCS2_DLL.dll
 0004:00000014       __IMPORT_DESCRIPTOR_oldaapi32 004b8014     oldaapi32:oldaapi32.dll
 0004:00000028       __IMPORT_DESCRIPTOR_ATMCD32D 004b8028     Atmcd32m:ATMCD32D.DLL
 0004:0000003c       __IMPORT_DESCRIPTOR_mfc90d 004b803c     mfc90d:mfc90d.dll
 0004:00000050       __IMPORT_DESCRIPTOR_MSVCR90D 004b8050     msvcrtd:MSVCR90D.dll
 0004:00000064       __IMPORT_DESCRIPTOR_KERNEL32 004b8064     kernel32:KERNEL32.dll
 0004:00000078       __IMPORT_DESCRIPTOR_COMCTL32 004b8078     comctl32:COMCTL32.dll
 0004:0000008c       __IMPORT_DESCRIPTOR_OLEAUT32 004b808c     oleaut32:OLEAUT32.dll
 0004:000000a0       __IMPORT_DESCRIPTOR_USER32 004b80a0     user32:USER32.dll
 0004:000000b4       __IMPORT_DESCRIPTOR_ADVAPI32 004b80b4     advapi32:ADVAPI32.dll
 0004:000000c8       __IMPORT_DESCRIPTOR_MSVCR90 004b80c8     MSVCRT:MSVCR90.dll
 0004:000000dc       __NULL_IMPORT_DESCRIPTOR   004b80dc     PI_GCS2_DLL:PI_GCS2_DLL.dll
 0004:00000df8       __imp__SetThreadToken@8    004b8df8     advapi32:ADVAPI32.dll
 0004:00000dfc       __imp__OpenThreadToken@16  004b8dfc     advapi32:ADVAPI32.dll
 0004:00000e00       __imp__RevertToSelf@0      004b8e00     advapi32:ADVAPI32.dll
 0004:00000e04       \177ADVAPI32_NULL_THUNK_DATA 004b8e04     advapi32:ADVAPI32.dll
 0004:00000e30       __imp__GetImages16@24      004b8e30     Atmcd32m:ATMCD32D.DLL
 0004:00000e34       __imp__SetADChannel@4      004b8e34     Atmcd32m:ATMCD32D.DLL
 0004:00000e38       __imp__SetHSSpeed@8        004b8e38     Atmcd32m:ATMCD32D.DLL
 0004:00000e3c       __imp__SetPreAmpGain@4     004b8e3c     Atmcd32m:ATMCD32D.DLL
 0004:00000e40       __imp__SetVSSpeed@4        004b8e40     Atmcd32m:ATMCD32D.DLL
 0004:00000e44       __imp__GetNumberNewImages@8 004b8e44     Atmcd32m:ATMCD32D.DLL
 0004:00000e48       __imp__AbortAcquisition@0  004b8e48     Atmcd32m:ATMCD32D.DLL
 0004:00000e4c       __imp__SetFastExtTrigger@4 004b8e4c     Atmcd32m:ATMCD32D.DLL
 0004:00000e50       __imp__SetFrameTransferMode@4 004b8e50     Atmcd32m:ATMCD32D.DLL
 0004:00000e54       __imp__SetNumberAccumulations@4 004b8e54     Atmcd32m:ATMCD32D.DLL
 0004:00000e58       __imp__SetAccumulationCycleTime@4 004b8e58     Atmcd32m:ATMCD32D.DLL
 0004:00000e5c       __imp__SetAcquisitionMode@4 004b8e5c     Atmcd32m:ATMCD32D.DLL
 0004:00000e60       __imp__SetExposureTime@4   004b8e60     Atmcd32m:ATMCD32D.DLL
 0004:00000e64       __imp__SetEMGainMode@4     004b8e64     Atmcd32m:ATMCD32D.DLL
 0004:00000e68       __imp__SetKineticCycleTime@4 004b8e68     Atmcd32m:ATMCD32D.DLL
 0004:00000e6c       __imp__FreeInternalMemory@0 004b8e6c     Atmcd32m:ATMCD32D.DLL
 0004:00000e70       __imp__Initialize@4        004b8e70     Atmcd32m:ATMCD32D.DLL
 0004:00000e74       __imp__ShutDown@0          004b8e74     Atmcd32m:ATMCD32D.DLL
 0004:00000e78       __imp__GetTemperature@4    004b8e78     Atmcd32m:ATMCD32D.DLL
 0004:00000e7c       __imp__CoolerOFF@0         004b8e7c     Atmcd32m:ATMCD32D.DLL
 0004:00000e80       __imp__SetEMCCDGain@4      004b8e80     Atmcd32m:ATMCD32D.DLL
 0004:00000e84       __imp__SetNumberKinetics@4 004b8e84     Atmcd32m:ATMCD32D.DLL
 0004:00000e88       __imp__SetOutputAmplifier@4 004b8e88     Atmcd32m:ATMCD32D.DLL
 0004:00000e8c       __imp__SetEMAdvanced@4     004b8e8c     Atmcd32m:ATMCD32D.DLL
 0004:00000e90       __imp__GetDetector@8       004b8e90     Atmcd32m:ATMCD32D.DLL
 0004:00000e94       __imp__CoolerON@0          004b8e94     Atmcd32m:ATMCD32D.DLL
 0004:00000e98       __imp__SetTemperature@4    004b8e98     Atmcd32m:ATMCD32D.DLL
 0004:00000e9c       __imp__GetAcquiredData16@8 004b8e9c     Atmcd32m:ATMCD32D.DLL
 0004:00000ea0       __imp__GetStatus@4         004b8ea0     Atmcd32m:ATMCD32D.DLL
 0004:00000ea4       __imp__StartAcquisition@0  004b8ea4     Atmcd32m:ATMCD32D.DLL
 0004:00000ea8       __imp__SetImage@24         004b8ea8     Atmcd32m:ATMCD32D.DLL
 0004:00000eac       __imp__SetShutter@16       004b8eac     Atmcd32m:ATMCD32D.DLL
 0004:00000eb0       __imp__SetTriggerMode@4    004b8eb0     Atmcd32m:ATMCD32D.DLL
 0004:00000eb4       __imp__SetReadMode@4       004b8eb4     Atmcd32m:ATMCD32D.DLL
 0004:00000eb8       \177ATMCD32D_NULL_THUNK_DATA 004b8eb8     Atmcd32m:ATMCD32D.DLL
 0004:00000efc       __imp__InitCommonControlsEx@4 004b8efc     comctl32:COMCTL32.dll
 0004:00000f00       \177COMCTL32_NULL_THUNK_DATA 004b8f00     comctl32:COMCTL32.dll
 0004:00000f2c       __imp__QueryPerformanceFrequency@4 004b8f2c     kernel32:KERNEL32.dll
 0004:00000f30       __imp__QueryPerformanceCounter@4 004b8f30     kernel32:KERNEL32.dll
 0004:00000f34       __imp__WaitForSingleObject@8 004b8f34     kernel32:KERNEL32.dll
 0004:00000f38       __imp__CreateThread@24     004b8f38     kernel32:KERNEL32.dll
 0004:00000f3c       __imp__Sleep@4             004b8f3c     kernel32:KERNEL32.dll
 0004:00000f40       __imp__GetCurrentDirectoryA@8 004b8f40     kernel32:KERNEL32.dll
 0004:00000f44       __imp__ReadFile@20         004b8f44     kernel32:KERNEL32.dll
 0004:00000f48       __imp__GetOverlappedResult@16 004b8f48     kernel32:KERNEL32.dll
 0004:00000f4c       __imp__CreateEventA@16     004b8f4c     kernel32:KERNEL32.dll
 0004:00000f50       __imp__WriteFile@20        004b8f50     kernel32:KERNEL32.dll
 0004:00000f54       __imp__GetLastError@0      004b8f54     kernel32:KERNEL32.dll
 0004:00000f58       __imp__CreateFileA@28      004b8f58     kernel32:KERNEL32.dll
 0004:00000f5c       __imp__GetCommState@8      004b8f5c     kernel32:KERNEL32.dll
 0004:00000f60       __imp__SetCommTimeouts@8   004b8f60     kernel32:KERNEL32.dll
 0004:00000f64       __imp__FreeLibrary@4       004b8f64     kernel32:KERNEL32.dll
 0004:00000f68       __imp__GetProcAddress@8    004b8f68     kernel32:KERNEL32.dll
 0004:00000f6c       __imp__LoadLibraryA@4      004b8f6c     kernel32:KERNEL32.dll
 0004:00000f70       __imp__CreateProcessA@40   004b8f70     kernel32:KERNEL32.dll
 0004:00000f74       __imp__InterlockedExchange@8 004b8f74     kernel32:KERNEL32.dll
 0004:00000f78       __imp__InterlockedCompareExchange@12 004b8f78     kernel32:KERNEL32.dll
 0004:00000f7c       __imp__GetStartupInfoA@4   004b8f7c     kernel32:KERNEL32.dll
 0004:00000f80       __imp__TerminateProcess@8  004b8f80     kernel32:KERNEL32.dll
 0004:00000f84       __imp__GetCurrentProcess@0 004b8f84     kernel32:KERNEL32.dll
 0004:00000f88       __imp__GetModuleFileNameW@12 004b8f88     kernel32:KERNEL32.dll
 0004:00000f8c       __imp__InterlockedDecrement@4 004b8f8c     kernel32:KERNEL32.dll
 0004:00000f90       __imp__InterlockedIncrement@4 004b8f90     kernel32:KERNEL32.dll
 0004:00000f94       __imp__OpenFileMappingA@12 004b8f94     kernel32:KERNEL32.dll
 0004:00000f98       __imp__GetCurrentThread@0  004b8f98     kernel32:KERNEL32.dll
 0004:00000f9c       __imp__CreateFileMappingA@24 004b8f9c     kernel32:KERNEL32.dll
 0004:00000fa0       __imp__MapViewOfFile@20    004b8fa0     kernel32:KERNEL32.dll
 0004:00000fa4       __imp__GetSystemInfo@4     004b8fa4     kernel32:KERNEL32.dll
 0004:00000fa8       __imp__UnmapViewOfFile@4   004b8fa8     kernel32:KERNEL32.dll
 0004:00000fac       __imp__VirtualAlloc@16     004b8fac     kernel32:KERNEL32.dll
 0004:00000fb0       __imp__LocalFileTimeToFileTime@8 004b8fb0     kernel32:KERNEL32.dll
 0004:00000fb4       __imp__FileTimeToLocalFileTime@8 004b8fb4     kernel32:KERNEL32.dll
 0004:00000fb8       __imp__FileTimeToSystemTime@8 004b8fb8     kernel32:KERNEL32.dll
 0004:00000fbc       __imp__MulDiv@12           004b8fbc     kernel32:KERNEL32.dll
 0004:00000fc0       __imp__lstrlenA@4          004b8fc0     kernel32:KERNEL32.dll
 0004:00000fc4       __imp__MultiByteToWideChar@24 004b8fc4     kernel32:KERNEL32.dll
 0004:00000fc8       __imp__OutputDebugStringW@4 004b8fc8     kernel32:KERNEL32.dll
 0004:00000fcc       __imp__CloseHandle@4       004b8fcc     kernel32:KERNEL32.dll
 0004:00000fd0       __imp__OpenEventA@12       004b8fd0     kernel32:KERNEL32.dll
 0004:00000fd4       __imp__SetEvent@4          004b8fd4     kernel32:KERNEL32.dll
 0004:00000fd8       __imp__RaiseException@16   004b8fd8     kernel32:KERNEL32.dll
 0004:00000fdc       __imp__UnhandledExceptionFilter@4 004b8fdc     kernel32:KERNEL32.dll
 0004:00000fe0       __imp__SetUnhandledExceptionFilter@4 004b8fe0     kernel32:KERNEL32.dll
 0004:00000fe4       __imp__IsDebuggerPresent@0 004b8fe4     kernel32:KERNEL32.dll
 0004:00000fe8       __imp__GetTickCount@0      004b8fe8     kernel32:KERNEL32.dll
 0004:00000fec       __imp__GetCurrentThreadId@0 004b8fec     kernel32:KERNEL32.dll
 0004:00000ff0       __imp__GetCurrentProcessId@0 004b8ff0     kernel32:KERNEL32.dll
 0004:00000ff4       __imp__GetSystemTimeAsFileTime@4 004b8ff4     kernel32:KERNEL32.dll
 0004:00000ff8       __imp__SetCommState@8      004b8ff8     kernel32:KERNEL32.dll
 0004:00000ffc       __imp__OutputDebugStringA@4 004b8ffc     kernel32:KERNEL32.dll
 0004:00001000       \177KERNEL32_NULL_THUNK_DATA 004b9000     kernel32:KERNEL32.dll
 0004:00001054       __imp__access              004b9054     MSVCRT:MSVCR90.dll
 0004:00001054       __imp___access             004b9054     MSVCRT:MSVCR90.dll
 0004:00001058       \177MSVCR90_NULL_THUNK_DATA 004b9058     MSVCRT:MSVCR90.dll
 0004:00001084       __imp__freopen             004b9084     msvcrtd:MSVCR90D.dll
 0004:00001088       __imp__fseek               004b9088     msvcrtd:MSVCR90D.dll
 0004:0000108c       __imp__perror              004b908c     msvcrtd:MSVCR90D.dll
 0004:00001090       __imp__floor               004b9090     msvcrtd:MSVCR90D.dll
 0004:00001094       __imp___CIpow              004b9094     msvcrtd:MSVCR90D.dll
 0004:00001098       __imp___CIlog              004b9098     msvcrtd:MSVCR90D.dll
 0004:0000109c       __imp__printf              004b909c     msvcrtd:MSVCR90D.dll
 0004:000010a0       __imp__wcslen              004b90a0     msvcrtd:MSVCR90D.dll
 0004:000010a4       __imp__memmove_s           004b90a4     msvcrtd:MSVCR90D.dll
 0004:000010a8       __imp___wcsicmp            004b90a8     msvcrtd:MSVCR90D.dll
 0004:000010ac       __imp__memcmp              004b90ac     msvcrtd:MSVCR90D.dll
 0004:000010b0       __imp___gmtime64_s         004b90b0     msvcrtd:MSVCR90D.dll
 0004:000010b4       __imp___mktime64           004b90b4     msvcrtd:MSVCR90D.dll
 0004:000010b8       __imp___time64             004b90b8     msvcrtd:MSVCR90D.dll
 0004:000010bc       __imp____CxxFrameHandler3  004b90bc     msvcrtd:MSVCR90D.dll
 0004:000010c0       __imp__calloc              004b90c0     msvcrtd:MSVCR90D.dll
 0004:000010c4       __imp__strcpy_s            004b90c4     msvcrtd:MSVCR90D.dll
 0004:000010c8       __imp__wcsncpy_s           004b90c8     msvcrtd:MSVCR90D.dll
 0004:000010cc       __imp__wcscpy_s            004b90cc     msvcrtd:MSVCR90D.dll
 0004:000010d0       __imp___snwprintf_s        004b90d0     msvcrtd:MSVCR90D.dll
 0004:000010d4       __imp___vsnwprintf_s       004b90d4     msvcrtd:MSVCR90D.dll
 0004:000010d8       __imp___vsnprintf_s        004b90d8     msvcrtd:MSVCR90D.dll
 0004:000010dc       __imp__wcscpy              004b90dc     msvcrtd:MSVCR90D.dll
 0004:000010e0       __imp__strcpy              004b90e0     msvcrtd:MSVCR90D.dll
 0004:000010e4       __imp__ftell               004b90e4     msvcrtd:MSVCR90D.dll
 0004:000010e8       __imp___CxxThrowException@8 004b90e8     msvcrtd:MSVCR90D.dll
 0004:000010ec       __imp___errno              004b90ec     msvcrtd:MSVCR90D.dll
 0004:000010f0       __imp___snprintf_s         004b90f0     msvcrtd:MSVCR90D.dll
 0004:000010f4       __imp___finite             004b90f4     msvcrtd:MSVCR90D.dll
 0004:000010f8       __imp__malloc              004b90f8     msvcrtd:MSVCR90D.dll
 0004:000010fc       __imp__fputs               004b90fc     msvcrtd:MSVCR90D.dll
 0004:00001100       __imp__rewind              004b9100     msvcrtd:MSVCR90D.dll
 0004:00001104       __imp__tmpfile             004b9104     msvcrtd:MSVCR90D.dll
 0004:00001108       __imp__strncmp             004b9108     msvcrtd:MSVCR90D.dll
 0004:0000110c       __imp__abort               004b910c     msvcrtd:MSVCR90D.dll
 0004:00001110       __imp__signal              004b9110     msvcrtd:MSVCR90D.dll
 0004:00001114       __imp__remove              004b9114     msvcrtd:MSVCR90D.dll
 0004:00001118       __imp__atoi                004b9118     msvcrtd:MSVCR90D.dll
 0004:0000111c       __imp__fread               004b911c     msvcrtd:MSVCR90D.dll
 0004:00001120       __imp___setmbcp            004b9120     msvcrtd:MSVCR90D.dll
 0004:00001124       __imp__free                004b9124     msvcrtd:MSVCR90D.dll
 0004:00001128       __imp__memset              004b9128     msvcrtd:MSVCR90D.dll
 0004:0000112c       __imp__sscanf              004b912c     msvcrtd:MSVCR90D.dll
 0004:00001130       __imp__sprintf             004b9130     msvcrtd:MSVCR90D.dll
 0004:00001134       __imp__atol                004b9134     msvcrtd:MSVCR90D.dll
 0004:00001138       __imp__atof                004b9138     msvcrtd:MSVCR90D.dll
 0004:0000113c       __imp___localtime64_s      004b913c     msvcrtd:MSVCR90D.dll
 0004:00001140       __imp__strftime            004b9140     msvcrtd:MSVCR90D.dll
 0004:00001144       __imp__pow                 004b9144     msvcrtd:MSVCR90D.dll
 0004:00001148       __imp__fprintf             004b9148     msvcrtd:MSVCR90D.dll
 0004:0000114c       __imp___CrtDbgReport       004b914c     msvcrtd:MSVCR90D.dll
 0004:00001150       __imp__putc                004b9150     msvcrtd:MSVCR90D.dll
 0004:00001154       __imp__fflush              004b9154     msvcrtd:MSVCR90D.dll
 0004:00001158       __imp__fwrite              004b9158     msvcrtd:MSVCR90D.dll
 0004:0000115c       __imp__fopen               004b915c     msvcrtd:MSVCR90D.dll
 0004:00001160       __imp__rand                004b9160     msvcrtd:MSVCR90D.dll
 0004:00001164       __imp__log                 004b9164     msvcrtd:MSVCR90D.dll
 0004:00001168       __imp__sqrt                004b9168     msvcrtd:MSVCR90D.dll
 0004:0000116c       __imp__cos                 004b916c     msvcrtd:MSVCR90D.dll
 0004:00001170       __imp___getpid             004b9170     msvcrtd:MSVCR90D.dll
 0004:00001174       __imp__srand               004b9174     msvcrtd:MSVCR90D.dll
 0004:00001178       __imp__exp                 004b9178     msvcrtd:MSVCR90D.dll
 0004:0000117c       __imp__fclose              004b917c     msvcrtd:MSVCR90D.dll
 0004:00001180       __imp__strlen              004b9180     msvcrtd:MSVCR90D.dll
 0004:00001184       __imp___recalloc           004b9184     msvcrtd:MSVCR90D.dll
 0004:00001188       __imp___invoke_watson      004b9188     msvcrtd:MSVCR90D.dll
 0004:0000118c       __imp___controlfp_s        004b918c     msvcrtd:MSVCR90D.dll
 0004:00001190       __imp___except_handler4_common 004b9190     msvcrtd:MSVCR90D.dll
 0004:00001194       __imp_?_type_info_dtor_internal_method@type_info@@QAEXXZ 004b9194     msvcrtd:MSVCR90D.dll
 0004:00001198       __imp___crt_debugger_hook  004b9198     msvcrtd:MSVCR90D.dll
 0004:0000119c       __imp_?terminate@@YAXXZ    004b919c     msvcrtd:MSVCR90D.dll
 0004:000011a0       __imp___initterm_e         004b91a0     msvcrtd:MSVCR90D.dll
 0004:000011a4       __imp___initterm           004b91a4     msvcrtd:MSVCR90D.dll
 0004:000011a8       __imp___CrtDbgReportW      004b91a8     msvcrtd:MSVCR90D.dll
 0004:000011ac       __imp___CrtSetCheckCount   004b91ac     msvcrtd:MSVCR90D.dll
 0004:000011b0       __imp___acmdln             004b91b0     msvcrtd:MSVCR90D.dll
 0004:000011b4       __imp___ismbblead          004b91b4     msvcrtd:MSVCR90D.dll
 0004:000011b8       __imp___cexit              004b91b8     msvcrtd:MSVCR90D.dll
 0004:000011bc       __imp___XcptFilter         004b91bc     msvcrtd:MSVCR90D.dll
 0004:000011c0       __imp___exit               004b91c0     msvcrtd:MSVCR90D.dll
 0004:000011c4       __imp____getmainargs       004b91c4     msvcrtd:MSVCR90D.dll
 0004:000011c8       __imp___amsg_exit          004b91c8     msvcrtd:MSVCR90D.dll
 0004:000011cc       __imp____set_app_type      004b91cc     msvcrtd:MSVCR90D.dll
 0004:000011d0       __imp____p__fmode          004b91d0     msvcrtd:MSVCR90D.dll
 0004:000011d4       __imp____p__commode        004b91d4     msvcrtd:MSVCR90D.dll
 0004:000011d8       __imp___adjust_fdiv        004b91d8     msvcrtd:MSVCR90D.dll
 0004:000011dc       __imp____setusermatherr    004b91dc     msvcrtd:MSVCR90D.dll
 0004:000011e0       __imp___configthreadlocale 004b91e0     msvcrtd:MSVCR90D.dll
 0004:000011e4       __imp___decode_pointer     004b91e4     msvcrtd:MSVCR90D.dll
 0004:000011e8       __imp___onexit             004b91e8     msvcrtd:MSVCR90D.dll
 0004:000011ec       __imp___lock               004b91ec     msvcrtd:MSVCR90D.dll
 0004:000011f0       __imp___encode_pointer     004b91f0     msvcrtd:MSVCR90D.dll
 0004:000011f4       __imp____dllonexit         004b91f4     msvcrtd:MSVCR90D.dll
 0004:000011f8       __imp___unlock             004b91f8     msvcrtd:MSVCR90D.dll
 0004:000011fc       __imp__memcpy              004b91fc     msvcrtd:MSVCR90D.dll
 0004:00001200       __imp___CIsqrt             004b9200     msvcrtd:MSVCR90D.dll
 0004:00001204       __imp___CIlog10            004b9204     msvcrtd:MSVCR90D.dll
 0004:00001208       __imp__exit                004b9208     msvcrtd:MSVCR90D.dll
 0004:0000120c       __imp____iob_func          004b920c     msvcrtd:MSVCR90D.dll
 0004:00001210       __imp__system              004b9210     msvcrtd:MSVCR90D.dll
 0004:00001214       \177MSVCR90D_NULL_THUNK_DATA 004b9214     msvcrtd:MSVCR90D.dll
 0004:00001288       __imp__SysFreeString@4     004b9288     oleaut32:OLEAUT32.dll
 0004:0000128c       \177OLEAUT32_NULL_THUNK_DATA 004b928c     oleaut32:OLEAUT32.dll
 0004:000012b8       __imp__PI_SVO@12           004b92b8     PI_GCS2_DLL:PI_GCS2_DLL.dll
 0004:000012bc       __imp__PI_qSAI@12          004b92bc     PI_GCS2_DLL:PI_GCS2_DLL.dll
 0004:000012c0       __imp__PI_ConnectUSB@4     004b92c0     PI_GCS2_DLL:PI_GCS2_DLL.dll
 0004:000012c4       __imp__PI_MOV@12           004b92c4     PI_GCS2_DLL:PI_GCS2_DLL.dll
 0004:000012c8       __imp__PI_IsMoving@12      004b92c8     PI_GCS2_DLL:PI_GCS2_DLL.dll
 0004:000012cc       __imp__PI_qPOS@12          004b92cc     PI_GCS2_DLL:PI_GCS2_DLL.dll
 0004:000012d0       __imp__PI_EnumerateUSB@12  004b92d0     PI_GCS2_DLL:PI_GCS2_DLL.dll
 0004:000012d4       __imp__PI_JON@16           004b92d4     PI_GCS2_DLL:PI_GCS2_DLL.dll
 0004:000012d8       __imp__PI_qJON@16          004b92d8     PI_GCS2_DLL:PI_GCS2_DLL.dll
 0004:000012dc       __imp__PI_ConnectUSBWithBaudRate@8 004b92dc     PI_GCS2_DLL:PI_GCS2_DLL.dll
 0004:000012e0       __imp__PI_CloseConnection@4 004b92e0     PI_GCS2_DLL:PI_GCS2_DLL.dll
 0004:000012e4       \177PI_GCS2_DLL_NULL_THUNK_DATA 004b92e4     PI_GCS2_DLL:PI_GCS2_DLL.dll
 0004:00001318       __imp__IntersectRect@12    004b9318     user32:USER32.dll
 0004:0000131c       __imp__OffsetRect@12       004b931c     user32:USER32.dll
 0004:00001320       __imp__InflateRect@12      004b9320     user32:USER32.dll
 0004:00001324       __imp__EqualRect@8         004b9324     user32:USER32.dll
 0004:00001328       __imp__SetRectEmpty@4      004b9328     user32:USER32.dll
 0004:0000132c       __imp__SetRect@20          004b932c     user32:USER32.dll
 0004:00001330       __imp__PtInRect@12         004b9330     user32:USER32.dll
 0004:00001334       __imp__IsRectEmpty@4       004b9334     user32:USER32.dll
 0004:00001338       __imp__CopyRect@8          004b9338     user32:USER32.dll
 0004:0000133c       __imp__UnionRect@12        004b933c     user32:USER32.dll
 0004:00001340       __imp__SubtractRect@12     004b9340     user32:USER32.dll
 0004:00001344       \177USER32_NULL_THUNK_DATA 004b9344     user32:USER32.dll
 0004:00001378       __imp_?AddToRecentFileList@CWinApp@@UAEXPBD@Z 004b9378     mfc90d:mfc90d.dll
 0004:0000137c       __imp_?InitApplication@CWinApp@@UAEHXZ 004b937c     mfc90d:mfc90d.dll
 0004:00001380       __imp_?SaveAllModified@CWinApp@@UAEHXZ 004b9380     mfc90d:mfc90d.dll
 0004:00001384       __imp_?DoMessageBox@CWinApp@@UAEHPBDII@Z 004b9384     mfc90d:mfc90d.dll
 0004:00001388       __imp_?DoWaitCursor@CWinApp@@UAEXH@Z 004b9388     mfc90d:mfc90d.dll
 0004:0000138c       __imp_?OnDDECommand@CWinApp@@UAEHPAD@Z 004b938c     mfc90d:mfc90d.dll
 0004:00001390       __imp_?WinHelpA@CWinApp@@UAEXKI@Z 004b9390     mfc90d:mfc90d.dll
 0004:00001394       __imp_?HtmlHelpA@CWinApp@@UAEXKI@Z 004b9394     mfc90d:mfc90d.dll
 0004:00001398       __imp_?WinHelpInternal@CWinApp@@UAEXKI@Z 004b9398     mfc90d:mfc90d.dll
 0004:0000139c       __imp_?LoadAppLangResourceDLL@CWinApp@@UAEPAUHINSTANCE__@@XZ 004b939c     mfc90d:mfc90d.dll
 0004:000013a0       __imp_?LoadSysPolicies@CWinApp@@UAEHXZ 004b93a0     mfc90d:mfc90d.dll
 0004:000013a4       __imp_??1CWinApp@@UAE@XZ   004b93a4     mfc90d:mfc90d.dll
 0004:000013a8       __imp_??1CCommandLineInfo@@UAE@XZ 004b93a8     mfc90d:mfc90d.dll
 0004:000013ac       __imp_?ProcessShellCommand@CWinApp@@QAEHAAVCCommandLineInfo@@@Z 004b93ac     mfc90d:mfc90d.dll
 0004:000013b0       __imp_?ParseCommandLine@CWinApp@@QAEXAAVCCommandLineInfo@@@Z 004b93b0     mfc90d:mfc90d.dll
 0004:000013b4       __imp_??0CCommandLineInfo@@QAE@XZ 004b93b4     mfc90d:mfc90d.dll
 0004:000013b8       __imp_?AddDocTemplate@CWinApp@@QAEXPAVCDocTemplate@@@Z 004b93b8     mfc90d:mfc90d.dll
 0004:000013bc       __imp_??0CSingleDocTemplate@@QAE@IPAUCRuntimeClass@@00@Z 004b93bc     mfc90d:mfc90d.dll
 0004:000013c0       __imp_?LoadStdProfileSettings@CWinApp@@IAEXI@Z 004b93c0     mfc90d:mfc90d.dll
 0004:000013c4       __imp_?AfxEnableControlContainer@@YAXPAVCOccManager@@@Z 004b93c4     mfc90d:mfc90d.dll
 0004:000013c8       __imp_?ExitInstance@CWinApp@@UAEHXZ 004b93c8     mfc90d:mfc90d.dll
 0004:000013cc       __imp_??1CSliderCtrl@@UAE@XZ 004b93cc     mfc90d:mfc90d.dll
 0004:000013d0       __imp_?ShowWindow@CWnd@@QAEHH@Z 004b93d0     mfc90d:mfc90d.dll
 0004:000013d4       __imp_??0CSliderCtrl@@QAE@XZ 004b93d4     mfc90d:mfc90d.dll
 0004:000013d8       __imp_?GetRuntimeClass@CDialog@@UBEPAUCRuntimeClass@@XZ 004b93d8     mfc90d:mfc90d.dll
 0004:000013dc       __imp_?DDX_Check@@YGXPAVCDataExchange@@HAAH@Z 004b93dc     mfc90d:mfc90d.dll
 0004:000013e0       __imp_?DDX_Slider@@YGXPAVCDataExchange@@HAAH@Z 004b93e0     mfc90d:mfc90d.dll
 0004:000013e4       __imp_?DDV_MinMaxInt@@YGXPAVCDataExchange@@HHH@Z 004b93e4     mfc90d:mfc90d.dll
 0004:000013e8       __imp_?DDX_Text@@YGXPAVCDataExchange@@HAAH@Z 004b93e8     mfc90d:mfc90d.dll
 0004:000013ec       __imp_?OnTimer@CWnd@@IAEXI@Z 004b93ec     mfc90d:mfc90d.dll
 0004:000013f0       __imp_?AfxMessageBox@@YGHPBDII@Z 004b93f0     mfc90d:mfc90d.dll
 0004:000013f4       __imp_?UpdateData@CWnd@@QAEHH@Z 004b93f4     mfc90d:mfc90d.dll
 0004:000013f8       __imp_??1CStatic@@UAE@XZ   004b93f8     mfc90d:mfc90d.dll
 0004:000013fc       __imp_??1CBitmap@@UAE@XZ   004b93fc     mfc90d:mfc90d.dll
 0004:00001400       __imp_??_U@YAPAXI@Z        004b9400     mfc90d:mfc90d.dll
 0004:00001404       __imp_??0CStatic@@QAE@XZ   004b9404     mfc90d:mfc90d.dll
 0004:00001408       __imp_??0CBitmap@@QAE@XZ   004b9408     mfc90d:mfc90d.dll
 0004:0000140c       __imp_?DDX_Control@@YGXPAVCDataExchange@@HAAVCWnd@@@Z 004b940c     mfc90d:mfc90d.dll
 0004:00001410       __imp_??_V@YAXPAX@Z        004b9410     mfc90d:mfc90d.dll
 0004:00001414       __imp_?DeleteObject@CGdiObject@@QAEHXZ 004b9414     mfc90d:mfc90d.dll
 0004:00001418       __imp_??1CClientDC@@UAE@XZ 004b9418     mfc90d:mfc90d.dll
 0004:0000141c       __imp_?GetObjectA@CGdiObject@@QBEHHPAX@Z 004b941c     mfc90d:mfc90d.dll
 0004:00001420       __imp_?CreateCompatibleBitmap@CBitmap@@QAEHPAVCDC@@HH@Z 004b9420     mfc90d:mfc90d.dll
 0004:00001424       __imp_??0CClientDC@@QAE@PAVCWnd@@@Z 004b9424     mfc90d:mfc90d.dll
 0004:00001428       __imp_?MoveWindow@CWnd@@QAEXHHHHH@Z 004b9428     mfc90d:mfc90d.dll
 0004:0000142c       __imp_??1CDC@@UAE@XZ       004b942c     mfc90d:mfc90d.dll
 0004:00001430       __imp_??1CPen@@UAE@XZ      004b9430     mfc90d:mfc90d.dll
 0004:00001434       __imp_?LineTo@CDC@@QAEHHH@Z 004b9434     mfc90d:mfc90d.dll
 0004:00001438       __imp_?MoveTo@CDC@@QAE?AVCPoint@@HH@Z 004b9438     mfc90d:mfc90d.dll
 0004:0000143c       __imp_?SelectObject@CDC@@QAEPAVCPen@@PAV2@@Z 004b943c     mfc90d:mfc90d.dll
 0004:00001440       __imp_??0CPen@@QAE@HHK@Z   004b9440     mfc90d:mfc90d.dll
 0004:00001444       __imp_?StretchBlt@CDC@@QAEHHHHHPAV1@HHHHK@Z 004b9444     mfc90d:mfc90d.dll
 0004:00001448       __imp_?SetViewportExt@CDC@@UAE?AVCSize@@HH@Z 004b9448     mfc90d:mfc90d.dll
 0004:0000144c       __imp_?SetViewportOrg@CDC@@UAE?AVCPoint@@HH@Z 004b944c     mfc90d:mfc90d.dll
 0004:00001450       __imp_?SetMapMode@CDC@@UAEHH@Z 004b9450     mfc90d:mfc90d.dll
 0004:00001454       __imp_?SelectObject@CDC@@QAEPAVCBitmap@@PAV2@@Z 004b9454     mfc90d:mfc90d.dll
 0004:00001458       __imp_?GetBitmap@CBitmap@@QAEHPAUtagBITMAP@@@Z 004b9458     mfc90d:mfc90d.dll
 0004:0000145c       __imp_?CreateCompatibleDC@CDC@@QAEHPAV1@@Z 004b945c     mfc90d:mfc90d.dll
 0004:00001460       __imp_??0CDC@@QAE@XZ       004b9460     mfc90d:mfc90d.dll
 0004:00001464       __imp_?SetBitmapBits@CBitmap@@QAEKKPBX@Z 004b9464     mfc90d:mfc90d.dll
 0004:00001468       __imp_?Format@?$CStringT@DV?$StrTraitMFC_DLL@DV?$ChTraitsCRT@D@ATL@@@@@ATL@@QAAXPBDZZ 004b9468     mfc90d:mfc90d.dll
 0004:0000146c       __imp_??4?$CStringT@DV?$StrTraitMFC_DLL@DV?$ChTraitsCRT@D@ATL@@@@@ATL@@QAEAAV01@ABV01@@Z 004b946c     mfc90d:mfc90d.dll
 0004:00001470       __imp_??4?$CStringT@DV?$StrTraitMFC_DLL@DV?$ChTraitsCRT@D@ATL@@@@@ATL@@QAEAAV01@PBD@Z 004b9470     mfc90d:mfc90d.dll
 0004:00001474       __imp_?SetWindowTextA@CWnd@@QAEXPBD@Z 004b9474     mfc90d:mfc90d.dll
 0004:00001478       __imp_?AppendFormat@?$CStringT@DV?$StrTraitMFC_DLL@DV?$ChTraitsCRT@D@ATL@@@@@ATL@@QAAXPBDZZ 004b9478     mfc90d:mfc90d.dll
 0004:0000147c       __imp_??0?$CStringT@DV?$StrTraitMFC_DLL@DV?$ChTraitsCRT@D@ATL@@@@@ATL@@QAE@ABV01@@Z 004b947c     mfc90d:mfc90d.dll
 0004:00001480       __imp_?Concatenate@?$CSimpleStringT@D$00@ATL@@KAXAAV12@PBDH1H@Z 004b9480     mfc90d:mfc90d.dll
 0004:00001484       __imp_?GetLength@?$CSimpleStringT@D$00@ATL@@QBEHXZ 004b9484     mfc90d:mfc90d.dll
 0004:00001488       __imp_??0?$CStringT@DV?$StrTraitMFC_DLL@DV?$ChTraitsCRT@D@ATL@@@@@ATL@@QAE@PAUIAtlStringMgr@1@@Z 004b9488     mfc90d:mfc90d.dll
 0004:0000148c       __imp_?GetManager@?$CStringT@DV?$StrTraitMFC_DLL@DV?$ChTraitsCRT@D@ATL@@@@@ATL@@QBEPAUIAtlStringMgr@2@XZ 004b948c     mfc90d:mfc90d.dll
 0004:00001490       __imp_??1CButton@@UAE@XZ   004b9490     mfc90d:mfc90d.dll
 0004:00001494       __imp_?Append@?$CSimpleStringT@D$00@ATL@@QAEXPBD@Z 004b9494     mfc90d:mfc90d.dll
 0004:00001498       __imp_?ReleaseBuffer@?$CSimpleStringT@D$00@ATL@@QAEXH@Z 004b9498     mfc90d:mfc90d.dll
 0004:0000149c       __imp_?GetBufferSetLength@?$CSimpleStringT@D$00@ATL@@QAEPADH@Z 004b949c     mfc90d:mfc90d.dll
 0004:000014a0       __imp_?AfxAssertFailedLine@@YGHPBDH@Z 004b94a0     mfc90d:mfc90d.dll
 0004:000014a4       __imp_?LoadBitmapA@CBitmap@@QAEHI@Z 004b94a4     mfc90d:mfc90d.dll
 0004:000014a8       __imp_??0?$CStringT@DV?$StrTraitMFC_DLL@DV?$ChTraitsCRT@D@ATL@@@@@ATL@@QAE@PBD@Z 004b94a8     mfc90d:mfc90d.dll
 0004:000014ac       __imp_?OpenDocumentFile@CWinApp@@UAEPAVCDocument@@PBD@Z 004b94ac     mfc90d:mfc90d.dll
 0004:000014b0       __imp_?DDX_Text@@YGXPAVCDataExchange@@HAAV?$CStringT@DV?$StrTraitMFC_DLL@DV?$ChTraitsCRT@D@ATL@@@@@ATL@@@Z 004b94b0     mfc90d:mfc90d.dll
 0004:000014b4       __imp_?DDX_Radio@@YGXPAVCDataExchange@@HAAH@Z 004b94b4     mfc90d:mfc90d.dll
 0004:000014b8       __imp_?DDV_MinMaxDouble@@YGXPAVCDataExchange@@ABNNN@Z 004b94b8     mfc90d:mfc90d.dll
 0004:000014bc       __imp_?DDX_Text@@YGXPAVCDataExchange@@HAAN@Z 004b94bc     mfc90d:mfc90d.dll
 0004:000014c0       __imp_?DDV_MinMaxLong@@YGXPAVCDataExchange@@JJJ@Z 004b94c0     mfc90d:mfc90d.dll
 0004:000014c4       __imp_?DDX_Text@@YGXPAVCDataExchange@@HAAK@Z 004b94c4     mfc90d:mfc90d.dll
 0004:000014c8       __imp_?CheckDlgButton@CWnd@@QAEXHI@Z 004b94c8     mfc90d:mfc90d.dll
 0004:000014cc       __imp_?EnableWindow@CWnd@@QAEHH@Z 004b94cc     mfc90d:mfc90d.dll
 0004:000014d0       __imp_?GetDlgItem@CWnd@@QBEPAV1@H@Z 004b94d0     mfc90d:mfc90d.dll
 0004:000014d4       __imp_?SetTimer@CWnd@@QAEIIIP6GXPAUHWND__@@IIK@Z@Z 004b94d4     mfc90d:mfc90d.dll
 0004:000014d8       __imp_?KillTimer@CWnd@@QAEHI@Z 004b94d8     mfc90d:mfc90d.dll
 0004:000014dc       __imp_?SetBitmap@CStatic@@QAEPAUHBITMAP__@@PAU2@@Z 004b94dc     mfc90d:mfc90d.dll
 0004:000014e0       __imp_??BCBitmap@@QBEPAUHBITMAP__@@XZ 004b94e0     mfc90d:mfc90d.dll
 0004:000014e4       __imp_??1CFileDialog@@UAE@XZ 004b94e4     mfc90d:mfc90d.dll
 0004:000014e8       __imp_?Left@?$CStringT@DV?$StrTraitMFC_DLL@DV?$ChTraitsCRT@D@ATL@@@@@ATL@@QBE?AV12@H@Z 004b94e8     mfc90d:mfc90d.dll
 0004:000014ec       __imp_?Find@?$CStringT@DV?$StrTraitMFC_DLL@DV?$ChTraitsCRT@D@ATL@@@@@ATL@@QBEHPBDH@Z 004b94ec     mfc90d:mfc90d.dll
 0004:000014f0       __imp_?GetPathName@CFileDialog@@QBE?AV?$CStringT@DV?$StrTraitMFC_DLL@DV?$ChTraitsCRT@D@ATL@@@@@ATL@@XZ 004b94f0     mfc90d:mfc90d.dll
 0004:000014f4       __imp_?DoModal@CFileDialog@@UAEHXZ 004b94f4     mfc90d:mfc90d.dll
 0004:000014f8       __imp_??0CFileDialog@@QAE@HPBD0K0PAVCWnd@@KH@Z 004b94f8     mfc90d:mfc90d.dll
 0004:000014fc       __imp_?IsWindowVisible@CWnd@@QBEHXZ 004b94fc     mfc90d:mfc90d.dll
 0004:00001500       __imp_?GetCheck@CButton@@QBEHXZ 004b9500     mfc90d:mfc90d.dll
 0004:00001504       __imp_?StringLength@?$CSimpleStringT@D$00@ATL@@SAHPBD@Z 004b9504     mfc90d:mfc90d.dll
 0004:00001508       __imp_?GetThisClass@CDocument@@SGPAUCRuntimeClass@@XZ 004b9508     mfc90d:mfc90d.dll
 0004:0000150c       __imp_??0CDocument@@QAE@XZ 004b950c     mfc90d:mfc90d.dll
 0004:00001510       __imp_?AssertValid@CDocument@@UBEXXZ 004b9510     mfc90d:mfc90d.dll
 0004:00001514       __imp_?Dump@CDocument@@UBEXAAVCDumpContext@@@Z 004b9514     mfc90d:mfc90d.dll
 0004:00001518       __imp_?OnCmdMsg@CDocument@@UAEHIHPAXPAUAFX_CMDHANDLERINFO@@@Z 004b9518     mfc90d:mfc90d.dll
 0004:0000151c       __imp_?OnFinalRelease@CDocument@@UAEXXZ 004b951c     mfc90d:mfc90d.dll
 0004:00001520       __imp_?GetMessageMap@CDocument@@MBEPBUAFX_MSGMAP@@XZ 004b9520     mfc90d:mfc90d.dll
 0004:00001524       __imp_?SetTitle@CDocument@@UAEXPBD@Z 004b9524     mfc90d:mfc90d.dll
 0004:00001528       __imp_?SetPathName@CDocument@@UAEXPBDH@Z 004b9528     mfc90d:mfc90d.dll
 0004:0000152c       __imp_?IsModified@CDocument@@UAEHXZ 004b952c     mfc90d:mfc90d.dll
 0004:00001530       __imp_?SetModifiedFlag@CDocument@@UAEXH@Z 004b9530     mfc90d:mfc90d.dll
 0004:00001534       __imp_?GetFirstViewPosition@CDocument@@UBEPAU__POSITION@@XZ 004b9534     mfc90d:mfc90d.dll
 0004:00001538       __imp_?GetNextView@CDocument@@UBEPAVCView@@AAPAU__POSITION@@@Z 004b9538     mfc90d:mfc90d.dll
 0004:0000153c       __imp_?OnChangedViewList@CDocument@@UAEXXZ 004b953c     mfc90d:mfc90d.dll
 0004:00001540       __imp_?DeleteContents@CDocument@@UAEXXZ 004b9540     mfc90d:mfc90d.dll
 0004:00001544       __imp_?OnOpenDocument@CDocument@@UAEHPBD@Z 004b9544     mfc90d:mfc90d.dll
 0004:00001548       __imp_?OnSaveDocument@CDocument@@UAEHPBD@Z 004b9548     mfc90d:mfc90d.dll
 0004:0000154c       __imp_?OnCloseDocument@CDocument@@UAEXXZ 004b954c     mfc90d:mfc90d.dll
 0004:00001550       __imp_?ReportSaveLoadException@CDocument@@UAEXPBDPAVCException@@HI@Z 004b9550     mfc90d:mfc90d.dll
 0004:00001554       __imp_?GetFile@CDocument@@UAEPAVCFile@@PBDIPAVCFileException@@@Z 004b9554     mfc90d:mfc90d.dll
 0004:00001558       __imp_?ReleaseFile@CDocument@@UAEXPAVCFile@@H@Z 004b9558     mfc90d:mfc90d.dll
 0004:0000155c       __imp_?CanCloseFrame@CDocument@@UAEHPAVCFrameWnd@@@Z 004b955c     mfc90d:mfc90d.dll
 0004:00001560       __imp_?SaveModified@CDocument@@UAEHXZ 004b9560     mfc90d:mfc90d.dll
 0004:00001564       __imp_?PreCloseFrame@CDocument@@UAEXPAVCFrameWnd@@@Z 004b9564     mfc90d:mfc90d.dll
 0004:00001568       __imp_?DoSave@CDocument@@UAEHPBDH@Z 004b9568     mfc90d:mfc90d.dll
 0004:0000156c       __imp_?DoFileSave@CDocument@@UAEHXZ 004b956c     mfc90d:mfc90d.dll
 0004:00001570       __imp_?UpdateFrameCounts@CDocument@@UAEXXZ 004b9570     mfc90d:mfc90d.dll
 0004:00001574       __imp_?GetDefaultMenu@CDocument@@UAEPAUHMENU__@@XZ 004b9574     mfc90d:mfc90d.dll
 0004:00001578       __imp_?GetDefaultAccelerator@CDocument@@UAEPAUHACCEL__@@XZ 004b9578     mfc90d:mfc90d.dll
 0004:0000157c       __imp_?OnIdle@CDocument@@UAEXXZ 004b957c     mfc90d:mfc90d.dll
 0004:00001580       __imp_??1CDocument@@UAE@XZ 004b9580     mfc90d:mfc90d.dll
 0004:00001584       __imp_?SetWindowPos@CWnd@@QAEHPBV1@HHHHI@Z 004b9584     mfc90d:mfc90d.dll
 0004:00001588       __imp_??1CEdit@@UAE@XZ     004b9588     mfc90d:mfc90d.dll
 0004:0000158c       __imp_?SetDlgItemInt@CWnd@@QAEXHIH@Z 004b958c     mfc90d:mfc90d.dll
 0004:00001590       __imp_?SetTicFreq@CSliderCtrl@@QAEXH@Z 004b9590     mfc90d:mfc90d.dll
 0004:00001594       __imp_?SetPos@CSliderCtrl@@QAEXH@Z 004b9594     mfc90d:mfc90d.dll
 0004:00001598       __imp_?SetRange@CSliderCtrl@@QAEXHHH@Z 004b9598     mfc90d:mfc90d.dll
 0004:0000159c       __imp_??0CEdit@@QAE@XZ     004b959c     mfc90d:mfc90d.dll
 0004:000015a0       __imp_?GetPos@CSliderCtrl@@QBEHXZ 004b95a0     mfc90d:mfc90d.dll
 0004:000015a4       __imp_?InvokeHelper@CWnd@@QAAXJGGPAXPBEZZ 004b95a4     mfc90d:mfc90d.dll
 0004:000015a8       __imp_?SetProperty@CWnd@@QAAXJGZZ 004b95a8     mfc90d:mfc90d.dll
 0004:000015ac       __imp_?Append@?$CSimpleStringT@D$00@ATL@@QAEXABV12@@Z 004b95ac     mfc90d:mfc90d.dll
 0004:000015b0       __imp_?DDV_MinMaxUInt@@YGXPAVCDataExchange@@III@Z 004b95b0     mfc90d:mfc90d.dll
 0004:000015b4       __imp_?DDX_Text@@YGXPAVCDataExchange@@HAAI@Z 004b95b4     mfc90d:mfc90d.dll
 0004:000015b8       __imp_?DDX_Text@@YGXPAVCDataExchange@@HAAM@Z 004b95b8     mfc90d:mfc90d.dll
 0004:000015bc       __imp_??2@YAPAXI@Z         004b95bc     mfc90d:mfc90d.dll
 0004:000015c0       __imp_?GetBuffer@?$CSimpleStringT@D$00@ATL@@QAEPADXZ 004b95c0     mfc90d:mfc90d.dll
 0004:000015c4       __imp_?Compare@?$CStringT@DV?$StrTraitMFC_DLL@DV?$ChTraitsCRT@D@ATL@@@@@ATL@@QBEHPBD@Z 004b95c4     mfc90d:mfc90d.dll
 0004:000015c8       __imp_??A?$CSimpleStringT@D$00@ATL@@QBEDH@Z 004b95c8     mfc90d:mfc90d.dll
 0004:000015cc       __imp_??1CListBox@@UAE@XZ  004b95cc     mfc90d:mfc90d.dll
 0004:000015d0       __imp_??0CListBox@@QAE@XZ  004b95d0     mfc90d:mfc90d.dll
 0004:000015d4       __imp_?DDX_LBIndex@@YGXPAVCDataExchange@@HAAH@Z 004b95d4     mfc90d:mfc90d.dll
 0004:000015d8       __imp_??1CFile@@UAE@XZ     004b95d8     mfc90d:mfc90d.dll
 0004:000015dc       __imp_?Close@CStdioFile@@UAEXXZ 004b95dc     mfc90d:mfc90d.dll
 0004:000015e0       __imp_?AddString@CListBox@@QAEHPBD@Z 004b95e0     mfc90d:mfc90d.dll
 0004:000015e4       __imp_??1CStdioFile@@UAE@XZ 004b95e4     mfc90d:mfc90d.dll
 0004:000015e8       __imp_?InsertString@CListBox@@QAEHHPBD@Z 004b95e8     mfc90d:mfc90d.dll
 0004:000015ec       __imp_?Right@?$CStringT@DV?$StrTraitMFC_DLL@DV?$ChTraitsCRT@D@ATL@@@@@ATL@@QBE?AV12@H@Z 004b95ec     mfc90d:mfc90d.dll
 0004:000015f0       __imp_?Trim@?$CStringT@DV?$StrTraitMFC_DLL@DV?$ChTraitsCRT@D@ATL@@@@@ATL@@QAEAAV12@XZ 004b95f0     mfc90d:mfc90d.dll
 0004:000015f4       __imp_?ReadString@CStdioFile@@UAEHAAV?$CStringT@DV?$StrTraitMFC_DLL@DV?$ChTraitsCRT@D@ATL@@@@@ATL@@@Z 004b95f4     mfc90d:mfc90d.dll
 0004:000015f8       __imp_?GetCount@CListBox@@QBEHXZ 004b95f8     mfc90d:mfc90d.dll
 0004:000015fc       __imp_??0CStdioFile@@QAE@PBDI@Z 004b95fc     mfc90d:mfc90d.dll
 0004:00001600       __imp_?ResetContent@CListBox@@QAEXXZ 004b9600     mfc90d:mfc90d.dll
 0004:00001604       __imp_??0CFile@@QAE@XZ     004b9604     mfc90d:mfc90d.dll
 0004:00001608       __imp_?MakeLower@?$CStringT@DV?$StrTraitMFC_DLL@DV?$ChTraitsCRT@D@ATL@@@@@ATL@@QAEAAV12@XZ 004b9608     mfc90d:mfc90d.dll
 0004:0000160c       __imp_?GetText@CListBox@@QBEXHAAV?$CStringT@DV?$StrTraitMFC_DLL@DV?$ChTraitsCRT@D@ATL@@@@@ATL@@@Z 004b960c     mfc90d:mfc90d.dll
 0004:00001610       __imp_?GetThisClass@CFormView@@SGPAUCRuntimeClass@@XZ 004b9610     mfc90d:mfc90d.dll
 0004:00001614       __imp_?GetThisMessageMap@CFormView@@KGPBUAFX_MSGMAP@@XZ 004b9614     mfc90d:mfc90d.dll
 0004:00001618       __imp_??0CFormView@@IAE@I@Z 004b9618     mfc90d:mfc90d.dll
 0004:0000161c       __imp_?AssertValid@CFormView@@UBEXXZ 004b961c     mfc90d:mfc90d.dll
 0004:00001620       __imp_?Dump@CFormView@@UBEXAAVCDumpContext@@@Z 004b9620     mfc90d:mfc90d.dll
 0004:00001624       __imp_?OnCmdMsg@CView@@UAEHIHPAXPAUAFX_CMDHANDLERINFO@@@Z 004b9624     mfc90d:mfc90d.dll
 0004:00001628       __imp_?Create@CFormView@@MAEHPBD0KABUtagRECT@@PAVCWnd@@IPAUCCreateContext@@@Z 004b9628     mfc90d:mfc90d.dll
 0004:0000162c       __imp_?PreCreateWindow@CView@@MAEHAAUtagCREATESTRUCTA@@@Z 004b962c     mfc90d:mfc90d.dll
 0004:00001630       __imp_?CalcWindowRect@CScrollView@@UAEXPAUtagRECT@@I@Z 004b9630     mfc90d:mfc90d.dll
 0004:00001634       __imp_?GetScrollBarCtrl@CView@@UBEPAVCScrollBar@@H@Z 004b9634     mfc90d:mfc90d.dll
 0004:00001638       __imp_?PreTranslateMessage@CFormView@@MAEHPAUtagMSG@@@Z 004b9638     mfc90d:mfc90d.dll
 0004:0000163c       __imp_?PostNcDestroy@CView@@MAEXXZ 004b963c     mfc90d:mfc90d.dll
 0004:00001640       __imp_?SetOccDialogInfo@CFormView@@MAEHPAU_AFX_OCC_DIALOG_INFO@@@Z 004b9640     mfc90d:mfc90d.dll
 0004:00001644       __imp_?GetOccDialogInfo@CFormView@@MAEPAU_AFX_OCC_DIALOG_INFO@@XZ 004b9644     mfc90d:mfc90d.dll
 0004:00001648       __imp_?IsSelected@CView@@UBEHPBVCObject@@@Z 004b9648     mfc90d:mfc90d.dll
 0004:0000164c       __imp_?OnScroll@CScrollView@@UAEHIIH@Z 004b964c     mfc90d:mfc90d.dll
 0004:00001650       __imp_?OnScrollBy@CScrollView@@UAEHVCSize@@H@Z 004b9650     mfc90d:mfc90d.dll
 0004:00001654       __imp_?OnDragEnter@CView@@UAEKPAVCOleDataObject@@KVCPoint@@@Z 004b9654     mfc90d:mfc90d.dll
 0004:00001658       __imp_?OnDragOver@CView@@UAEKPAVCOleDataObject@@KVCPoint@@@Z 004b9658     mfc90d:mfc90d.dll
 0004:0000165c       __imp_?OnDragLeave@CView@@UAEXXZ 004b965c     mfc90d:mfc90d.dll
 0004:00001660       __imp_?OnDrop@CView@@UAEHPAVCOleDataObject@@KVCPoint@@@Z 004b9660     mfc90d:mfc90d.dll
 0004:00001664       __imp_?OnDropEx@CView@@UAEKPAVCOleDataObject@@KKVCPoint@@@Z 004b9664     mfc90d:mfc90d.dll
 0004:00001668       __imp_?OnDragScroll@CView@@UAEKKVCPoint@@@Z 004b9668     mfc90d:mfc90d.dll
 0004:0000166c       __imp_?OnPrepareDC@CScrollView@@UAEXPAVCDC@@PAUCPrintInfo@@@Z 004b966c     mfc90d:mfc90d.dll
 0004:00001670       __imp_?OnActivateView@CFormView@@MAEXHPAVCView@@0@Z 004b9670     mfc90d:mfc90d.dll
 0004:00001674       __imp_?OnActivateFrame@CFormView@@MAEXIPAVCFrameWnd@@@Z 004b9674     mfc90d:mfc90d.dll
 0004:00001678       __imp_?OnUpdate@CView@@MAEXPAV1@JPAVCObject@@@Z 004b9678     mfc90d:mfc90d.dll
 0004:0000167c       __imp_?OnDraw@CFormView@@MAEXPAVCDC@@@Z 004b967c     mfc90d:mfc90d.dll
 0004:00001680       __imp_?OnPreparePrinting@CView@@MAEHPAUCPrintInfo@@@Z 004b9680     mfc90d:mfc90d.dll
 0004:00001684       __imp_?OnBeginPrinting@CView@@MAEXPAVCDC@@PAUCPrintInfo@@@Z 004b9684     mfc90d:mfc90d.dll
 0004:00001688       __imp_?OnPrint@CView@@MAEXPAVCDC@@PAUCPrintInfo@@@Z 004b9688     mfc90d:mfc90d.dll
 0004:0000168c       __imp_?OnEndPrinting@CView@@MAEXPAVCDC@@PAUCPrintInfo@@@Z 004b968c     mfc90d:mfc90d.dll
 0004:00001690       __imp_?OnEndPrintPreview@CView@@MAEXPAVCDC@@PAUCPrintInfo@@UtagPOINT@@PAVCPreviewView@@@Z 004b9690     mfc90d:mfc90d.dll
 0004:00001694       __imp_?GetWheelScrollDistance@CScrollView@@UAE?AVCSize@@V2@HH@Z 004b9694     mfc90d:mfc90d.dll
 0004:00001698       __imp_?GetAccessibleChild@CWnd@@QAEJUtagVARIANT@@PAPAUIDispatch@@@Z 004b9698     mfc90d:mfc90d.dll
 0004:0000169c       __imp_?GetAccessibleChildCount@CWnd@@QAEJXZ 004b969c     mfc90d:mfc90d.dll
 0004:000016a0       __imp_?GetAccessibleName@CWnd@@QAEJUtagVARIANT@@PAPA_W@Z 004b96a0     mfc90d:mfc90d.dll
 0004:000016a4       __imp_?GetAccessibilityLocation@CWnd@@QAEJUtagVARIANT@@PAJ111@Z 004b96a4     mfc90d:mfc90d.dll
 0004:000016a8       __imp_?GetAccessibilityHitTest@CWnd@@QAEJJJPAUtagVARIANT@@@Z 004b96a8     mfc90d:mfc90d.dll
 0004:000016ac       __imp_?OnInitialUpdate@CFormView@@UAEXXZ 004b96ac     mfc90d:mfc90d.dll
 0004:000016b0       __imp_??1CFormView@@UAE@XZ 004b96b0     mfc90d:mfc90d.dll
 0004:000016b4       __imp_?Unregister@CWinApp@@UAEHXZ 004b96b4     mfc90d:mfc90d.dll
 0004:000016b8       __imp_?Register@CWinApp@@UAEHXZ 004b96b8     mfc90d:mfc90d.dll
 0004:000016bc       __imp_?InitLibId@CWinApp@@UAEXXZ 004b96bc     mfc90d:mfc90d.dll
 0004:000016c0       __imp_?Delete@CWinThread@@UAEXXZ 004b96c0     mfc90d:mfc90d.dll
 0004:000016c4       __imp_?GetMainWnd@CWinThread@@UAEPAVCWnd@@XZ 004b96c4     mfc90d:mfc90d.dll
 0004:000016c8       __imp_?ProcessMessageFilter@CWinThread@@UAEHHPAUtagMSG@@@Z 004b96c8     mfc90d:mfc90d.dll
 0004:000016cc       __imp_?ProcessWndProcException@CWinApp@@UAEJPAVCException@@PBUtagMSG@@@Z 004b96cc     mfc90d:mfc90d.dll
 0004:000016d0       __imp_?IsIdleMessage@CWinThread@@UAEHPAUtagMSG@@@Z 004b96d0     mfc90d:mfc90d.dll
 0004:000016d4       __imp_?OnIdle@CWinApp@@UAEHJ@Z 004b96d4     mfc90d:mfc90d.dll
 0004:000016d8       __imp_?PumpMessage@CWinThread@@UAEHXZ 004b96d8     mfc90d:mfc90d.dll
 0004:000016dc       __imp_?PreTranslateMessage@CWinThread@@UAEHPAUtagMSG@@@Z 004b96dc     mfc90d:mfc90d.dll
 0004:000016e0       __imp_?Run@CWinApp@@UAEHXZ 004b96e0     mfc90d:mfc90d.dll
 0004:000016e4       __imp_?GetInterfaceMap@CCmdTarget@@MBEPBUAFX_INTERFACEMAP@@XZ 004b96e4     mfc90d:mfc90d.dll
 0004:000016e8       __imp_?GetMessageMap@CWinApp@@MBEPBUAFX_MSGMAP@@XZ 004b96e8     mfc90d:mfc90d.dll
 0004:000016ec       __imp_?OnFinalRelease@CCmdTarget@@UAEXXZ 004b96ec     mfc90d:mfc90d.dll
 0004:000016f0       __imp_?Dump@CWinApp@@UBEXAAVCDumpContext@@@Z 004b96f0     mfc90d:mfc90d.dll
 0004:000016f4       __imp_?AssertValid@CWinApp@@UBEXXZ 004b96f4     mfc90d:mfc90d.dll
 0004:000016f8       __imp_?GetRuntimeClass@CWinApp@@UBEPAUCRuntimeClass@@XZ 004b96f8     mfc90d:mfc90d.dll
 0004:000016fc       __imp_??0CWinApp@@QAE@PBD@Z 004b96fc     mfc90d:mfc90d.dll
 0004:00001700       __imp_?PreCreateWindow@CFrameWnd@@MAEHAAUtagCREATESTRUCTA@@@Z 004b9700     mfc90d:mfc90d.dll
 0004:00001704       __imp_??1CFrameWnd@@UAE@XZ 004b9704     mfc90d:mfc90d.dll
 0004:00001708       __imp_?OnHideMenuBar@CFrameWnd@@MAEXXZ 004b9708     mfc90d:mfc90d.dll
 0004:0000170c       __imp_?OnShowMenuBar@CFrameWnd@@MAEXXZ 004b970c     mfc90d:mfc90d.dll
 0004:00001710       __imp_?ExitHelpMode@CFrameWnd@@UAEXXZ 004b9710     mfc90d:mfc90d.dll
 0004:00001714       __imp_?DelayUpdateFrameMenu@CFrameWnd@@UAEXPAUHMENU__@@@Z 004b9714     mfc90d:mfc90d.dll
 0004:00001718       __imp_?GetDefaultAccelerator@CFrameWnd@@UAEPAUHACCEL__@@XZ 004b9718     mfc90d:mfc90d.dll
 0004:0000171c       __imp_?OnUpdateFrameMenu@CFrameWnd@@UAEXPAUHMENU__@@@Z 004b971c     mfc90d:mfc90d.dll
 0004:00001720       __imp_?OnUpdateFrameTitle@CFrameWnd@@UAEXH@Z 004b9720     mfc90d:mfc90d.dll
 0004:00001724       __imp_?OnCreateClient@CFrameWnd@@MAEHPAUtagCREATESTRUCTA@@PAUCCreateContext@@@Z 004b9724     mfc90d:mfc90d.dll
 0004:00001728       __imp_?NegotiateBorderSpace@CFrameWnd@@UAEHIPAUtagRECT@@@Z 004b9728     mfc90d:mfc90d.dll
 0004:0000172c       __imp_?GetMessageBar@CFrameWnd@@UAEPAVCWnd@@XZ 004b972c     mfc90d:mfc90d.dll
 0004:00001730       __imp_?OnSetPreviewMode@CFrameWnd@@UAEXHPAUCPrintPreviewState@@@Z 004b9730     mfc90d:mfc90d.dll
 0004:00001734       __imp_?GetMenuBarState@CFrameWnd@@UBEKXZ 004b9734     mfc90d:mfc90d.dll
 0004:00001738       __imp_?SetMenuBarState@CFrameWnd@@UAEHK@Z 004b9738     mfc90d:mfc90d.dll
 0004:0000173c       __imp_?GetMenuBarVisibility@CFrameWnd@@UBEKXZ 004b973c     mfc90d:mfc90d.dll
 0004:00001740       __imp_?SetMenuBarVisibility@CFrameWnd@@UAEXK@Z 004b9740     mfc90d:mfc90d.dll
 0004:00001744       __imp_?ActivateFrame@CFrameWnd@@UAEXH@Z 004b9744     mfc90d:mfc90d.dll
 0004:00001748       __imp_?RecalcLayout@CFrameWnd@@UAEXH@Z 004b9748     mfc90d:mfc90d.dll
 0004:0000174c       __imp_?GetMessageString@CFrameWnd@@UBEXIAAV?$CStringT@DV?$StrTraitMFC_DLL@DV?$ChTraitsCRT@D@ATL@@@@@ATL@@@Z 004b974c     mfc90d:mfc90d.dll
 0004:00001750       __imp_?GetActiveFrame@CFrameWnd@@UAEPAV1@XZ 004b9750     mfc90d:mfc90d.dll
 0004:00001754       __imp_?GetActiveDocument@CFrameWnd@@UAEPAVCDocument@@XZ 004b9754     mfc90d:mfc90d.dll
 0004:00001758       __imp_?LoadFrame@CFrameWnd@@UAEHIKPAVCWnd@@PAUCCreateContext@@@Z 004b9758     mfc90d:mfc90d.dll
 0004:0000175c       __imp_?Create@CFrameWnd@@UAEHPBD0KABUtagRECT@@PAVCWnd@@0KPAUCCreateContext@@@Z 004b975c     mfc90d:mfc90d.dll
 0004:00001760       __imp_?IsFrameWnd@CFrameWnd@@UBEHXZ 004b9760     mfc90d:mfc90d.dll
 0004:00001764       __imp_?PostNcDestroy@CFrameWnd@@MAEXXZ 004b9764     mfc90d:mfc90d.dll
 0004:00001768       __imp_?PreTranslateMessage@CFrameWnd@@UAEHPAUtagMSG@@@Z 004b9768     mfc90d:mfc90d.dll
 0004:0000176c       __imp_?EndModalState@CFrameWnd@@UAEXXZ 004b976c     mfc90d:mfc90d.dll
 0004:00001770       __imp_?BeginModalState@CFrameWnd@@UAEXXZ 004b9770     mfc90d:mfc90d.dll
 0004:00001774       __imp_?OnCommand@CFrameWnd@@MAEHIJ@Z 004b9774     mfc90d:mfc90d.dll
 0004:00001778       __imp_?SetMenu@CFrameWnd@@UAEHPAVCMenu@@@Z 004b9778     mfc90d:mfc90d.dll
 0004:0000177c       __imp_?GetMenu@CFrameWnd@@UBEPAVCMenu@@XZ 004b977c     mfc90d:mfc90d.dll
 0004:00001780       __imp_?GetMessageMap@CFrameWnd@@MBEPBUAFX_MSGMAP@@XZ 004b9780     mfc90d:mfc90d.dll
 0004:00001784       __imp_?OnCmdMsg@CFrameWnd@@UAEHIHPAXPAUAFX_CMDHANDLERINFO@@@Z 004b9784     mfc90d:mfc90d.dll
 0004:00001788       __imp_?Dump@CFrameWnd@@UBEXAAVCDumpContext@@@Z 004b9788     mfc90d:mfc90d.dll
 0004:0000178c       __imp_?AssertValid@CFrameWnd@@UBEXXZ 004b978c     mfc90d:mfc90d.dll
 0004:00001790       __imp_??0CFrameWnd@@QAE@XZ 004b9790     mfc90d:mfc90d.dll
 0004:00001794       __imp_?GetThisClass@CFrameWnd@@SGPAUCRuntimeClass@@XZ 004b9794     mfc90d:mfc90d.dll
 0004:00001798       __imp_?GetThisMessageMap@CDialog@@KGPBUAFX_MSGMAP@@XZ 004b9798     mfc90d:mfc90d.dll
 0004:0000179c       __imp_??1CDialog@@UAE@XZ   004b979c     mfc90d:mfc90d.dll
 0004:000017a0       __imp_?PreInitDialog@CDialog@@MAEXXZ 004b97a0     mfc90d:mfc90d.dll
 0004:000017a4       __imp_?OnCancel@CDialog@@MAEXXZ 004b97a4     mfc90d:mfc90d.dll
 0004:000017a8       __imp_?OnOK@CDialog@@MAEXXZ 004b97a8     mfc90d:mfc90d.dll
 0004:000017ac       __imp_?OnSetFont@CDialog@@UAEXPAVCFont@@@Z 004b97ac     mfc90d:mfc90d.dll
 0004:000017b0       __imp_?OnInitDialog@CDialog@@UAEHXZ 004b97b0     mfc90d:mfc90d.dll
 0004:000017b4       __imp_?DoModal@CDialog@@UAEHXZ 004b97b4     mfc90d:mfc90d.dll
 0004:000017b8       __imp_?CreateIndirect@CDialog@@UAEHPBUDLGTEMPLATE@@PAVCWnd@@PAX@Z 004b97b8     mfc90d:mfc90d.dll
 0004:000017bc       __imp_?CreateIndirect@CDialog@@UAEHPAXPAVCWnd@@@Z 004b97bc     mfc90d:mfc90d.dll
 0004:000017c0       __imp_?Create@CDialog@@UAEHPBDPAVCWnd@@@Z 004b97c0     mfc90d:mfc90d.dll
 0004:000017c4       __imp_?Create@CDialog@@UAEHIPAVCWnd@@@Z 004b97c4     mfc90d:mfc90d.dll
 0004:000017c8       __imp_?GetOccDialogInfo@CDialog@@MAEPAU_AFX_OCC_DIALOG_INFO@@XZ 004b97c8     mfc90d:mfc90d.dll
 0004:000017cc       __imp_?SetOccDialogInfo@CDialog@@MAEHPAU_AFX_OCC_DIALOG_INFO@@@Z 004b97cc     mfc90d:mfc90d.dll
 0004:000017d0       __imp_?CheckAutoCenter@CDialog@@UAEHXZ 004b97d0     mfc90d:mfc90d.dll
 0004:000017d4       __imp_?PreTranslateMessage@CDialog@@UAEHPAUtagMSG@@@Z 004b97d4     mfc90d:mfc90d.dll
 0004:000017d8       __imp_?Create@CWnd@@UAEHPBD0KABUtagRECT@@PAV1@IPAUCCreateContext@@@Z 004b97d8     mfc90d:mfc90d.dll
 0004:000017dc       __imp_?OnCmdMsg@CDialog@@UAEHIHPAXPAUAFX_CMDHANDLERINFO@@@Z 004b97dc     mfc90d:mfc90d.dll
 0004:000017e0       __imp_?Dump@CDialog@@UBEXAAVCDumpContext@@@Z 004b97e0     mfc90d:mfc90d.dll
 0004:000017e4       __imp_?AssertValid@CDialog@@UBEXXZ 004b97e4     mfc90d:mfc90d.dll
 0004:000017e8       __imp_??0CDialog@@QAE@IPAVCWnd@@@Z 004b97e8     mfc90d:mfc90d.dll
 0004:000017ec       __imp_?GetThisClass@CDialog@@SGPAUCRuntimeClass@@XZ 004b97ec     mfc90d:mfc90d.dll
 0004:000017f0       __imp_??B?$CSimpleStringT@D$00@ATL@@QBEPBDXZ 004b97f0     mfc90d:mfc90d.dll
 0004:000017f4       __imp_??1?$CStringT@DV?$StrTraitMFC_DLL@DV?$ChTraitsCRT@D@ATL@@@@@ATL@@QAE@XZ 004b97f4     mfc90d:mfc90d.dll
 0004:000017f8       __imp_??0?$CStringT@DV?$StrTraitMFC_DLL@DV?$ChTraitsCRT@D@ATL@@@@@ATL@@QAE@XZ 004b97f8     mfc90d:mfc90d.dll
 0004:000017fc       __imp_?GetThisClass@CWnd@@SGPAUCRuntimeClass@@XZ 004b97fc     mfc90d:mfc90d.dll
 0004:00001800       __imp_??1CWnd@@UAE@XZ      004b9800     mfc90d:mfc90d.dll
 0004:00001804       __imp_?CreateControl@CWnd@@QAEHABU_GUID@@PBDKABUtagRECT@@PAV1@IPAVCFile@@HPA_W@Z 004b9804     mfc90d:mfc90d.dll
 0004:00001808       __imp_?GetOccDialogInfo@CWnd@@MAEPAU_AFX_OCC_DIALOG_INFO@@XZ 004b9808     mfc90d:mfc90d.dll
 0004:0000180c       __imp_?SetOccDialogInfo@CWnd@@MAEHPAU_AFX_OCC_DIALOG_INFO@@@Z 004b980c     mfc90d:mfc90d.dll
 0004:00001810       __imp_?CreateControlSite@CWnd@@MAEHPAVCOleControlContainer@@PAPAVCOleControlSite@@IABU_GUID@@@Z 004b9810     mfc90d:mfc90d.dll
 0004:00001814       __imp_?CreateControlContainer@CWnd@@MAEHPAPAVCOleControlContainer@@@Z 004b9814     mfc90d:mfc90d.dll
 0004:00001818       __imp_?IsFrameWnd@CWnd@@UBEHXZ 004b9818     mfc90d:mfc90d.dll
 0004:0000181c       __imp_?CheckAutoCenter@CWnd@@UAEHXZ 004b981c     mfc90d:mfc90d.dll
 0004:00001820       __imp_?OnChildNotify@CWnd@@MAEHIIJPAJ@Z 004b9820     mfc90d:mfc90d.dll
 0004:00001824       __imp_?PostNcDestroy@CWnd@@MAEXXZ 004b9824     mfc90d:mfc90d.dll
 0004:00001828       __imp_?DefWindowProcA@CWnd@@MAEJIIJ@Z 004b9828     mfc90d:mfc90d.dll
 0004:0000182c       __imp_?OnWndMsg@CWnd@@MAEHIIJPAJ@Z 004b982c     mfc90d:mfc90d.dll
 0004:00001830       __imp_?WindowProc@CWnd@@MAEJIIJ@Z 004b9830     mfc90d:mfc90d.dll
 0004:00001834       __imp_?OnAmbientProperty@CWnd@@UAEHPAVCOleControlSite@@JPAUtagVARIANT@@@Z 004b9834     mfc90d:mfc90d.dll
 0004:00001838       __imp_?PreTranslateMessage@CWnd@@UAEHPAUtagMSG@@@Z 004b9838     mfc90d:mfc90d.dll
 0004:0000183c       __imp_?EndModalState@CWnd@@UAEXXZ 004b983c     mfc90d:mfc90d.dll
 0004:00001840       __imp_?BeginModalState@CWnd@@UAEXXZ 004b9840     mfc90d:mfc90d.dll
 0004:00001844       __imp_?DoDataExchange@CWnd@@MAEXPAVCDataExchange@@@Z 004b9844     mfc90d:mfc90d.dll
 0004:00001848       __imp_?GetSuperWndProcAddr@CWnd@@MAEPAP6GJPAUHWND__@@IIJ@ZXZ 004b9848     mfc90d:mfc90d.dll
 0004:0000184c       __imp_?OnNotify@CWnd@@MAEHIJPAJ@Z 004b984c     mfc90d:mfc90d.dll
 0004:00001850       __imp_?OnCommand@CWnd@@MAEHIJ@Z 004b9850     mfc90d:mfc90d.dll
 0004:00001854       __imp_?CreateAccessibleProxy@CWnd@@UAEJIJPAJ@Z 004b9854     mfc90d:mfc90d.dll
 0004:00001858       __imp_?SetProxy@CWnd@@UAEJPAUIAccessibleProxy@@@Z 004b9858     mfc90d:mfc90d.dll
 0004:0000185c       __imp_?put_accValue@CWnd@@UAEJUtagVARIANT@@PA_W@Z 004b985c     mfc90d:mfc90d.dll
 0004:00001860       __imp_?put_accName@CWnd@@UAEJUtagVARIANT@@PA_W@Z 004b9860     mfc90d:mfc90d.dll
 0004:00001864       __imp_?accDoDefaultAction@CWnd@@UAEJUtagVARIANT@@@Z 004b9864     mfc90d:mfc90d.dll
 0004:00001868       __imp_?accHitTest@CWnd@@UAEJJJPAUtagVARIANT@@@Z 004b9868     mfc90d:mfc90d.dll
 0004:0000186c       __imp_?accNavigate@CWnd@@UAEJJUtagVARIANT@@PAU2@@Z 004b986c     mfc90d:mfc90d.dll
 0004:00001870       __imp_?accLocation@CWnd@@UAEJPAJ000UtagVARIANT@@@Z 004b9870     mfc90d:mfc90d.dll
 0004:00001874       __imp_?accSelect@CWnd@@UAEJJUtagVARIANT@@@Z 004b9874     mfc90d:mfc90d.dll
 0004:00001878       __imp_?get_accDefaultAction@CWnd@@UAEJUtagVARIANT@@PAPA_W@Z 004b9878     mfc90d:mfc90d.dll
 0004:0000187c       __imp_?get_accSelection@CWnd@@UAEJPAUtagVARIANT@@@Z 004b987c     mfc90d:mfc90d.dll
 0004:00001880       __imp_?get_accFocus@CWnd@@UAEJPAUtagVARIANT@@@Z 004b9880     mfc90d:mfc90d.dll
 0004:00001884       __imp_?get_accKeyboardShortcut@CWnd@@UAEJUtagVARIANT@@PAPA_W@Z 004b9884     mfc90d:mfc90d.dll
 0004:00001888       __imp_?get_accHelpTopic@CWnd@@UAEJPAPA_WUtagVARIANT@@PAJ@Z 004b9888     mfc90d:mfc90d.dll
 0004:0000188c       __imp_?get_accHelp@CWnd@@UAEJUtagVARIANT@@PAPA_W@Z 004b988c     mfc90d:mfc90d.dll
 0004:00001890       __imp_?get_accState@CWnd@@UAEJUtagVARIANT@@PAU2@@Z 004b9890     mfc90d:mfc90d.dll
 0004:00001894       __imp_?get_accRole@CWnd@@UAEJUtagVARIANT@@PAU2@@Z 004b9894     mfc90d:mfc90d.dll
 0004:00001898       __imp_?get_accDescription@CWnd@@UAEJUtagVARIANT@@PAPA_W@Z 004b9898     mfc90d:mfc90d.dll
 0004:0000189c       __imp_?get_accValue@CWnd@@UAEJUtagVARIANT@@PAPA_W@Z 004b989c     mfc90d:mfc90d.dll
 0004:000018a0       __imp_?get_accName@CWnd@@UAEJUtagVARIANT@@PAPA_W@Z 004b98a0     mfc90d:mfc90d.dll
 0004:000018a4       __imp_?get_accChild@CWnd@@UAEJUtagVARIANT@@PAPAUIDispatch@@@Z 004b98a4     mfc90d:mfc90d.dll
 0004:000018a8       __imp_?get_accChildCount@CWnd@@UAEJPAJ@Z 004b98a8     mfc90d:mfc90d.dll
 0004:000018ac       __imp_?get_accParent@CWnd@@UAEJPAPAUIDispatch@@@Z 004b98ac     mfc90d:mfc90d.dll
 0004:000018b0       __imp_?EnsureStdObj@CWnd@@UAEJXZ 004b98b0     mfc90d:mfc90d.dll
 0004:000018b4       __imp_?EndModalLoop@CWnd@@UAEXH@Z 004b98b4     mfc90d:mfc90d.dll
 0004:000018b8       __imp_?ContinueModal@CWnd@@UAEHXZ 004b98b8     mfc90d:mfc90d.dll
 0004:000018bc       __imp_?WinHelpInternal@CWnd@@UAEXKI@Z 004b98bc     mfc90d:mfc90d.dll
 0004:000018c0       __imp_?HtmlHelpA@CWnd@@UAEXKI@Z 004b98c0     mfc90d:mfc90d.dll
 0004:000018c4       __imp_?WinHelpA@CWnd@@UAEXKI@Z 004b98c4     mfc90d:mfc90d.dll
 0004:000018c8       __imp_?GetScrollBarCtrl@CWnd@@UBEPAVCScrollBar@@H@Z 004b98c8     mfc90d:mfc90d.dll
 0004:000018cc       __imp_?OnToolHitTest@CWnd@@UBEHVCPoint@@PAUtagTOOLINFOA@@@Z 004b98cc     mfc90d:mfc90d.dll
 0004:000018d0       __imp_?SetMenu@CWnd@@UAEHPAVCMenu@@@Z 004b98d0     mfc90d:mfc90d.dll
 0004:000018d4       __imp_?GetMenu@CWnd@@UBEPAVCMenu@@XZ 004b98d4     mfc90d:mfc90d.dll
 0004:000018d8       __imp_?CalcWindowRect@CWnd@@UAEXPAUtagRECT@@I@Z 004b98d8     mfc90d:mfc90d.dll
 0004:000018dc       __imp_?PreCreateWindow@CWnd@@UAEHAAUtagCREATESTRUCTA@@@Z 004b98dc     mfc90d:mfc90d.dll
 0004:000018e0       __imp_?DestroyWindow@CWnd@@UAEHXZ 004b98e0     mfc90d:mfc90d.dll
 0004:000018e4       __imp_?CreateEx@CWnd@@UAEHKPBD0KHHHHPAUHWND__@@PAUHMENU__@@PAX@Z 004b98e4     mfc90d:mfc90d.dll
 0004:000018e8       __imp_?CreateEx@CWnd@@UAEHKPBD0KABUtagRECT@@PAV1@IPAX@Z 004b98e8     mfc90d:mfc90d.dll
 0004:000018ec       __imp_?PreSubclassWindow@CWnd@@UAEXXZ 004b98ec     mfc90d:mfc90d.dll
 0004:000018f0       __imp_?GetConnectionHook@CCmdTarget@@MAEPAUIConnectionPoint@@ABU_GUID@@@Z 004b98f0     mfc90d:mfc90d.dll
 0004:000018f4       __imp_?GetExtraConnectionPoints@CCmdTarget@@MAEHPAVCPtrArray@@@Z 004b98f4     mfc90d:mfc90d.dll
 0004:000018f8       __imp_?GetInterfaceHook@CCmdTarget@@UAEPAUIUnknown@@PBX@Z 004b98f8     mfc90d:mfc90d.dll
 0004:000018fc       __imp_?OnCreateAggregates@CCmdTarget@@UAEHXZ 004b98fc     mfc90d:mfc90d.dll
 0004:00001900       __imp_?GetEventSinkMap@CCmdTarget@@MBEPBUAFX_EVENTSINKMAP@@XZ 004b9900     mfc90d:mfc90d.dll
 0004:00001904       __imp_?GetInterfaceMap@CWnd@@MBEPBUAFX_INTERFACEMAP@@XZ 004b9904     mfc90d:mfc90d.dll
 0004:00001908       __imp_?GetConnectionMap@CCmdTarget@@MBEPBUAFX_CONNECTIONMAP@@XZ 004b9908     mfc90d:mfc90d.dll
 0004:0000190c       __imp_?GetDispatchMap@CCmdTarget@@MBEPBUAFX_DISPMAP@@XZ 004b990c     mfc90d:mfc90d.dll
 0004:00001910       __imp_?GetCommandMap@CCmdTarget@@MBEPBUAFX_OLECMDMAP@@XZ 004b9910     mfc90d:mfc90d.dll
 0004:00001914       __imp_?GetMessageMap@CWnd@@MBEPBUAFX_MSGMAP@@XZ 004b9914     mfc90d:mfc90d.dll
 0004:00001918       __imp_?GetTypeLib@CCmdTarget@@UAEJKPAPAUITypeLib@@@Z 004b9918     mfc90d:mfc90d.dll
 0004:0000191c       __imp_?GetTypeLibCache@CCmdTarget@@UAEPAVCTypeLibCache@@XZ 004b991c     mfc90d:mfc90d.dll
 0004:00001920       __imp_?GetTypeInfoCount@CCmdTarget@@UAEIXZ 004b9920     mfc90d:mfc90d.dll
 0004:00001924       __imp_?GetDispatchIID@CCmdTarget@@UAEHPAU_GUID@@@Z 004b9924     mfc90d:mfc90d.dll
 0004:00001928       __imp_?IsInvokeAllowed@CCmdTarget@@UAEHJ@Z 004b9928     mfc90d:mfc90d.dll
 0004:0000192c       __imp_?OnFinalRelease@CWnd@@UAEXXZ 004b992c     mfc90d:mfc90d.dll
 0004:00001930       __imp_?OnCmdMsg@CCmdTarget@@UAEHIHPAXPAUAFX_CMDHANDLERINFO@@@Z 004b9930     mfc90d:mfc90d.dll
 0004:00001934       __imp_?Dump@CWnd@@UBEXAAVCDumpContext@@@Z 004b9934     mfc90d:mfc90d.dll
 0004:00001938       __imp_?AssertValid@CWnd@@UBEXXZ 004b9938     mfc90d:mfc90d.dll
 0004:0000193c       __imp_?Serialize@CObject@@UAEXAAVCArchive@@@Z 004b993c     mfc90d:mfc90d.dll
 0004:00001940       __imp_??0CWnd@@QAE@XZ      004b9940     mfc90d:mfc90d.dll
 0004:00001944       __imp_??2CObject@@SGPAXI@Z 004b9944     mfc90d:mfc90d.dll
 0004:00001948       __imp_??3CObject@@SGXPAX@Z 004b9948     mfc90d:mfc90d.dll
 0004:0000194c       __imp_??3@YAXPAX@Z         004b994c     mfc90d:mfc90d.dll
 0004:00001950       __imp_?AfxWinMain@@YGHPAUHINSTANCE__@@0PADH@Z 004b9950     mfc90d:mfc90d.dll
 0004:00001954       __imp_??0CButton@@QAE@XZ   004b9954     mfc90d:mfc90d.dll
 0004:00001958       __imp_?AfxGetModuleState@@YGPAVAFX_MODULE_STATE@@XZ 004b9958     mfc90d:mfc90d.dll
 0004:0000195c       \177mfc90d_NULL_THUNK_DATA 004b995c     mfc90d:mfc90d.dll
 0004:00001ab4       __imp__olDaGetDASS@16      004b9ab4     oldaapi32:oldaapi32.dll
 0004:00001ab8       __imp__olDaSetDataFlow@8   004b9ab8     oldaapi32:oldaapi32.dll
 0004:00001abc       __imp__olDaConfig@4        004b9abc     oldaapi32:oldaapi32.dll
 0004:00001ac0       __imp__olDaPutSingleValue@20 004b9ac0     oldaapi32:oldaapi32.dll
 0004:00001ac4       __imp__olDaReleaseDASS@4   004b9ac4     oldaapi32:oldaapi32.dll
 0004:00001ac8       __imp__olDaTerminate@4     004b9ac8     oldaapi32:oldaapi32.dll
 0004:00001acc       __imp__olDaInitialize@8    004b9acc     oldaapi32:oldaapi32.dll
 0004:00001ad0       \177oldaapi32_NULL_THUNK_DATA 004b9ad0     oldaapi32:oldaapi32.dll

 entry point at        0001:00026c60

